文件：feed.c       编译器版本 HGASM 0202 页次1


   1  0000              ; Generated by holtek-gcc v3.19, Fri Jan 21 10:08:33 2022
   2  0000              ; 
   3  0000              ; Configuration:
   4  0000              ;       without long instruction
   5  0000              ;       Single ROM, Multi-RAM
   6  0000              ;       bits_per_rom_unit:16
   7  0000              ;       with mp1
   8  0000              ;       with tbhp, address(0x9)
   9  0000              ;          Use tabrd-const
  10  0000              ;       
  11  0000              ;       
  12  0000              ;       
  13  0000              ; use 'tabrdc' instead of 'tabrd'
  14  0000              ;       
  15  0000              
  16  0000              #pragma translator "holtek-gcc 4.6.4" "3.19" "build 20130711"
  17  0000              ; Rebuild 718
  18  0000              
  19  0000              ir equ [2]
  20  0000              mp equ [3]
  21  0000              sbp equ [1]
  22  0000              acc equ [5]
  23  0000              bp equ [4]
  24  0000              tblp equ [7]
  25  0000              tbhp equ [9]
  26  0000              status equ [10]
  27  0000              c equ [10].0
  28  0000              ac equ [10].1
  29  0000              z equ [10].2
  30  0000              ov equ [10].3
  31  0000              intc equ [11]
  32  0000              
  33  0000              extern ra:byte
  34  0000              extern rb:byte
  35  0000              extern rc:byte
  36  0000              extern rd:byte
  37  0000              extern re:byte
  38  0000              extern rf:byte
  39  0000              extern rg:byte
  40  0000              extern rh:byte
  41  0000              extern _Crom2Prom:near
  42  0000              extern _Crom2PromNext:near
  43  0000              
  44  0000              RAMBANK 0 @HCCINIT, @HCCINIT0
  45  0000              
  46  0000              RAMBANK 0 @BITDATASEC, @BITDATASEC1
  47  0000              @HCCINIT	.section 'data'
  48  0000              @HCCINIT0	.section 'data'
  49  0000              @BITDATASEC	 .section 'data'
  50  0000              @BITDATASEC1	 .section 'data'
  51  0000              
  52  0000              #pragma debug scope 1 1
  53  0000              	extern __DELAY3:near
  54  0000              	extern __DELAYX3:near
  55  0000              	extern __DELAYX6:near
  56  0000              	extern __DELAYY5:near
  57  0000              	extern __DELAYY3:near
  58  0000              	extern _builtin_holtek_delay_2:byte
  59  0000              public _feed_run
文件：feed.ASM     编译器版本 HGASM 0202 页次2

  60  0000              #pragma debug scope 2 1

  19  0000              #line 19 "e:\ht66f018_f12\main\feed.c"
  19  0000              _feed_run .section 'code'
  19  0000              _feed_run proc
  19  0000              public _feed_run_2
  19  0000  0003[           local _feed_run_2 db 3 dup(?)	; 2,1
            00
            ]
  19  0003              #pragma debug struct_end
  19  0003              #pragma debug struct_end
  19  0003              #pragma debug pointer 43 42 2
  19  0003              #pragma debug pointer 43 42 2
  19  0003              #pragma debug variable 43 2 _feed_run_2+0 "info"
  19  0003              #pragma debug variable 8 2 _feed_run_2+2 "ret"
  22  0003              #line 22 "e:\ht66f018_f12\main\feed.c"
  22  0000  1F00     R  	clr _feed_run_2[2]
  25  0001              #line 25 "e:\ht66f018_f12\main\feed.c"
  25  0001  0F02        	mov a,2
  25  0002  0300     R  	add a,_feed_run_2[0]
  25  0003  0083        	mov mp,a
  25  0004  0F00        	mov a,0
  25  0005  1300     R  	adc a,_feed_run_2[1]
  25  0006  0081        	mov sbp,a
  25  0007  2000     E  	call _Crom2Prom
  25  0008  0080     E  	mov ra,a
  25  0009  1080     E  	sz ra
  25  000A  2800     R  	jmp _LI1
  25  000B  2800     R  	jmp _L3
  25  000C              _LI1:
  32  000C              #line 32 "e:\ht66f018_f12\main\feed.c"
  32  000C  0F00     R  	mov a,low offset _feed_run_2
  32  000D  0080     E  	mov rb,a
  32  000E  0F00     R  	mov a,high offset _feed_run_2
  32  000F  0080     E  	mov rc,a
  32  0010  0F02        	mov a,2
  32  0011  0300     E  	add a,rb
  32  0012  0080     E  	mov _motor_2[0],a
  32  0013  0F00        	mov a,0
  32  0014  1300     E  	adc a,rc
  32  0015  0080     E  	mov _motor_2[1],a
  32  0016  0700     E  	mov a,ra
  32  0017  2000     E  	call _motor
  32  0018  0080     E  	mov ra,a
  32  0019  0F02        	mov a,2
  32  001A  0300     R  	add a,_feed_run_2[0]
  32  001B  0083        	mov mp,a
  32  001C  0F00        	mov a,0
  32  001D  1300     R  	adc a,_feed_run_2[1]
  32  001E  0081        	mov sbp,a
  32  001F  0701        	mov a,sbp
  32  0020  0084        	mov bp,a
  32  0021  0700     E  	mov a,ra
  32  0022  0082        	mov ir,a
  33  0023              #line 33 "e:\ht66f018_f12\main\feed.c"
  33  0023  0700     R  	mov a,_feed_run_2[2]
  33  0024  0080     E  	mov ra,a
  33  0025  2800     R  	jmp _L2
  33  0026              _L3:
  27  0026              #line 27 "e:\ht66f018_f12\main\feed.c"
文件：feed.c       编译器版本 HGASM 0202 页次3

  27  0026  1F00     E  	clr ra
  27  0027              _L2:
  34  0027              #line 34 "e:\ht66f018_f12\main\feed.c"
  34  0027  0700     E  	mov a,ra
  34  0028  0003        	ret
  34  0029              _feed_run endp
  34  0029              #line 34 "e:\ht66f018_f12\main\feed.c"
  34  0029              #pragma debug scope 1 1
  34  0029              public _feed_scan
  34  0029              #pragma debug scope 3 1
  39  0029              #line 39 "e:\ht66f018_f12\main\feed.c"
  39  0000              _feed_scan .section 'code'
  39  0000              _feed_scan proc
  39  0000              public _feed_scan_2
  39  0000  0006[           local _feed_scan_2 db 6 dup(?)	; 2,4
            00
            ]
  39  0006              #pragma debug struct_end
  39  0006              #pragma debug struct_end
  39  0006              #pragma debug pointer 45 44 3
  39  0006              #pragma debug pointer 45 44 3
  39  0006              #pragma debug variable 45 3 _feed_scan_2+0 "feed"
  39  0006              #pragma debug variable 8 3 _feed_scan_2+2 "i"
  43  0006              #line 43 "e:\ht66f018_f12\main\feed.c"
  43  0000  0F01        	mov a,1
  43  0001  0080     R  	mov _feed_scan_2[2],a
  43  0002              _L8:
  43  0002  0700     R  	mov a,_feed_scan_2[2]
  43  0003  0300     R  	add a,_feed_scan_2[2]
  43  0004  0080     E  	mov ra,a
  43  0005  0700     E  	mov a,ra
  43  0006  0300     E  	add a,ra
  43  0007  0080     R  	mov _feed_scan_2[3],a
  43  0008  1400     R  	inca _feed_scan_2[3]
  43  0009  0080     E  	mov ra,a
  46  000A              #line 46 "e:\ht66f018_f12\main\feed.c"
  46  000A  0700     E  	mov a,ra
  46  000B  2000     E  	call _EEPROM_Read_Byte
  46  000C  0080     R  	mov _feed_scan_2[4],a
  46  000D  0700     R  	mov a,_feed_scan_2[3]
  46  000E  0B02        	add a,2
  46  000F  0080     E  	mov ra,a
  47  0010              #line 47 "e:\ht66f018_f12\main\feed.c"
  47  0010  0700     E  	mov a,ra
  47  0011  2000     E  	call _EEPROM_Read_Byte
  47  0012  0080     R  	mov _feed_scan_2[5],a
  47  0013  0700     R  	mov a,_feed_scan_2[3]
  47  0014  0B03        	add a,3
  47  0015  0080     E  	mov ra,a
  48  0016              #line 48 "e:\ht66f018_f12\main\feed.c"
  48  0016  0700     E  	mov a,ra
  48  0017  2000     E  	call _EEPROM_Read_Byte
  48  0018  0080     R  	mov _feed_scan_2[3],a
  50  0019              #line 50 "e:\ht66f018_f12\main\feed.c"
  50  0019  0700     R  	mov a,_feed_scan_2[4]
  50  001A  0200     E  	sub a,_rtc_date[0]
  50  001B  390A        	snz z
  50  001C  2800     R  	jmp _L6
  50  001D  0700     R  	mov a,_feed_scan_2[5]
  50  001E  0200     E  	sub a,_rtc_date[1]
文件：feed.c       编译器版本 HGASM 0202 页次4

  50  001F  390A        	snz z
  50  0020  2800     R  	jmp _L6
  54  0021              #line 54 "e:\ht66f018_f12\main\feed.c"
  54  0021  2000     E  	call _rtc_lcd
  55  0022              #line 55 "e:\ht66f018_f12\main\feed.c"
  55  0022  0700     R  	mov a,_feed_scan_2[0]
  55  0023  0083        	mov mp,a
  55  0024  0700     R  	mov a,_feed_scan_2[1]
  55  0025  0081        	mov sbp,a
  55  0026  0701        	mov a,sbp
  55  0027  0084        	mov bp,a
  55  0028  0700     R  	mov a,_feed_scan_2[4]
  55  0029  0082        	mov ir,a
  56  002A              #line 56 "e:\ht66f018_f12\main\feed.c"
  56  002A  0F01        	mov a,1
  56  002B  0300     R  	add a,_feed_scan_2[0]
  56  002C  0083        	mov mp,a
  56  002D  0F00        	mov a,0
  56  002E  1300     R  	adc a,_feed_scan_2[1]
  56  002F  0081        	mov sbp,a
  56  0030  0701        	mov a,sbp
  56  0031  0084        	mov bp,a
  56  0032  0700     R  	mov a,_feed_scan_2[5]
  56  0033  0082        	mov ir,a
  57  0034              #line 57 "e:\ht66f018_f12\main\feed.c"
  57  0034  0F02        	mov a,2
  57  0035  0300     R  	add a,_feed_scan_2[0]
  57  0036  0083        	mov mp,a
  57  0037  0F00        	mov a,0
  57  0038  1300     R  	adc a,_feed_scan_2[1]
  57  0039  0081        	mov sbp,a
  57  003A  0701        	mov a,sbp
  57  003B  0084        	mov bp,a
  57  003C  0700     R  	mov a,_feed_scan_2[3]
  57  003D  0082        	mov ir,a
  58  003E              #line 58 "e:\ht66f018_f12\main\feed.c"
  58  003E  0F03        	mov a,3
  58  003F  0300     R  	add a,_feed_scan_2[0]
  58  0040  0083        	mov mp,a
  58  0041  0F00        	mov a,0
  58  0042  1300     R  	adc a,_feed_scan_2[1]
  58  0043  0081        	mov sbp,a
  58  0044  0701        	mov a,sbp
  58  0045  0084        	mov bp,a
  58  0046  0F01        	mov a,1
  58  0047  0082        	mov ir,a
  60  0048              #line 60 "e:\ht66f018_f12\main\feed.c"
  60  0048  0F01        	mov a,1
  60  0049  0080     R  	mov _feed_going[0],a
  61  004A              #line 61 "e:\ht66f018_f12\main\feed.c"
  61  004A  2800     R  	jmp _L5
  61  004B              _L6:
  43  004B              #line 43 "e:\ht66f018_f12\main\feed.c"
  43  004B  1480     R  	inc _feed_scan_2[2]
  43  004C  0700     R  	mov a,_feed_scan_2[2]
  43  004D  0A07        	sub a,7
  43  004E  390A        	snz z
  43  004F  2800     R  	jmp _L8
  43  0050              _L5:
  43  0050  0003        	ret
文件：feed.c       编译器版本 HGASM 0202 页次5

  43  0051              _feed_scan endp
  43  0051              #line 43 "e:\ht66f018_f12\main\feed.c"
  43  0051              #pragma debug scope 1 1
  43  0051              public _feed_going
  43  0000              @HCCINIT	.section 'data'
  14  0000              #line 14 "e:\ht66f018_f12\main\feed.c"
  14  0000              @HCCINIT .section 'data'
  14  0000              _feed_going label byte
  14  0000              #pragma debug variable 8 1 _feed_going "feed_going"
  14  0000              	db 0
  14  0000              @ROMDATA_BASE .section inpage 'code'
  14  0000              	db 0
  14  0001              @HCCINIT .section 'data'
  11  0001              #line 11 "e:\ht66f018_f12\main\feed.c"
  11  0001              public _feed_plans
  11  0000              @HCCINIT0 .section 'data'
  11  0000  0018[       _feed_plans	db 24 dup(0)
            00
            ]
  11  0018              #pragma debug struct_end
  11  0018              #pragma debug struct_end
  11  0018              #pragma debug array 47 46 6 1
  11  0018              #pragma debug array 47 46 6 1
  11  0018              #pragma debug variable 47 1 _feed_plans "feed_plans"
  11  0018              
  11  0001              @HCCINIT .section 'data'
  11  0001              
  11  0001              ; output external variables
  11  0001              extern _rtc_date:byte
  11  0001              extern _motor_2:byte
  11  0001              extern _motor:near
  11  0001              extern _EEPROM_Read_Byte:near
  11  0001              extern _rtc_lcd:near
  11  0001              
  11  0001              ; 
  11  0001              ; Generated by holtek-gcc v3.19, Fri Jan 21 10:08:33 2022
  11  0001              ; Rebuild 718
  11  0001              ; end of file


        0 Errors, 0