文件：main.c       编译器版本 HGASM 0202 页次1


   1  0000              ; Generated by holtek-gcc v3.19, Fri Jan 21 10:08:31 2022
   2  0000              ; 
   3  0000              ; Configuration:
   4  0000              ;       without long instruction
   5  0000              ;       Single ROM, Multi-RAM
   6  0000              ;       bits_per_rom_unit:16
   7  0000              ;       with mp1
   8  0000              ;       with tbhp, address(0x9)
   9  0000              ;          Use tabrd-const
  10  0000              ;       
  11  0000              ;       
  12  0000              ;       
  13  0000              ; use 'tabrdc' instead of 'tabrd'
  14  0000              ;       
  15  0000              
  16  0000              #pragma translator "holtek-gcc 4.6.4" "3.19" "build 20130711"
  17  0000              ; Rebuild 718
  18  0000              
  19  0000              ir equ [2]
  20  0000              mp equ [3]
  21  0000              sbp equ [1]
  22  0000              acc equ [5]
  23  0000              bp equ [4]
  24  0000              tblp equ [7]
  25  0000              tbhp equ [9]
  26  0000              status equ [10]
  27  0000              c equ [10].0
  28  0000              ac equ [10].1
  29  0000              z equ [10].2
  30  0000              ov equ [10].3
  31  0000              intc equ [11]
  32  0000              
  33  0000              extern ra:byte
  34  0000              extern rb:byte
  35  0000              extern rc:byte
  36  0000              extern rd:byte
  37  0000              extern re:byte
  38  0000              extern rf:byte
  39  0000              extern rg:byte
  40  0000              extern rh:byte
  41  0000              extern _Crom2Prom:near
  42  0000              extern _Crom2PromNext:near
  43  0000              
  44  0000              RAMBANK 0 @HCCINIT, @HCCINIT0
  45  0000              
  46  0000              RAMBANK 0 @BITDATASEC, @BITDATASEC1
  47  0000              @HCCINIT	.section 'data'
  48  0000              @HCCINIT0	.section 'data'
  49  0000              @BITDATASEC	 .section 'data'
  50  0000              @BITDATASEC1	 .section 'data'
  51  0000              
  52  0000              #pragma debug scope 1 1
  53  0000              	extern __DELAY3:near
  54  0000              	extern __DELAYX3:near
  55  0000              	extern __DELAYX6:near
  56  0000              	extern __DELAYY5:near
  57  0000              	extern __DELAYY3:near
  58  0000              	extern _builtin_holtek_delay_2:byte
  59  0000              ___pa equ [20]
文件：main.ASM     编译器版本 HGASM 0202 页次2

  60  0000              ___pac equ [21]
  61  0000              ___papu equ [22]
  62  0000              ___intc0 equ [14]
  63  0000              public _main
  64  0000              #pragma debug scope 2 1

  23  0000              #line 23 "e:\ht66f018_f12\main\main.c"
  23  0000              IFDEF WITH_DEFAULT_STARTUP
  23  0000              extern _main_initial0:near
  23  0000              extern _main_startup:near
  23  0000              ENDIF
  23  0000              
  23  0000              ROMBANK 0 @start
  23  0000              @start .section com_l 'code'
  23  0000              _main_startup1:
  23  0000              @start .section com_e 'code'
  23  0000  2800     R  	jmp _main
  23  0001              
  23  0000              _main .section 'code'
  23  0000              _main proc
  23  0000  0002[           local _main_2 db 2 dup(?)
            00
            ]
  23  0002              #pragma debug variable 8 2 _main_2+1 "rtc_oldmin"
  27  0002              #line 27 "e:\ht66f018_f12\main\main.c"
  27  0002              ;# 27 "e:\ht66f018_f12\main\main.c" 1
  27  0000              	IF 100>263690
  27  0000              ;# 27 "e:\ht66f018_f12\main\main.c" 1
  27  0000              	ERRMESSAGE 'the value 100of the argument exceeds the maxinum 263690'
  27  0000              	ENDIF
  27  0000              ;# 27 "e:\ht66f018_f12\main\main.c" 1
  27  0000              	IF 100<0
  27  0000              ;# 27 "e:\ht66f018_f12\main\main.c" 1
  27  0000              	ERRMESSAGE 'the value 100 of the argument exceeds the mininum 0'
  27  0000              	ENDIF
  27  0000              ;# 27 "e:\ht66f018_f12\main\main.c" 1
  27  0000              	IF 100==0
  27  0000              ;# 27 "e:\ht66f018_f12\main\main.c" 1
  27  0000              	JMP $
  27  0000              	ENDIF
  27  0000              ;# 27 "e:\ht66f018_f12\main\main.c" 1
  27  0000              	IF 100==1
  27  0000              ;# 27 "e:\ht66f018_f12\main\main.c" 1
  27  0000              	NOP
  27  0000              	ENDIF
  27  0000              ;# 27 "e:\ht66f018_f12\main\main.c" 1
  27  0000              	IF 100==2
  27  0000              ;# 27 "e:\ht66f018_f12\main\main.c" 1
  27  0000              	NOP
  27  0000              ;# 27 "e:\ht66f018_f12\main\main.c" 1
  27  0000              	NOP
  27  0000              	ENDIF
  27  0000              ;# 27 "e:\ht66f018_f12\main\main.c" 1
  27  0000              	IF 100==3
  27  0000              ;# 27 "e:\ht66f018_f12\main\main.c" 1
  27  0000              	NOP
  27  0000              ;# 27 "e:\ht66f018_f12\main\main.c" 1
  27  0000              	NOP
  27  0000              ;# 27 "e:\ht66f018_f12\main\main.c" 1
  27  0000              	NOP
文件：main.c       编译器版本 HGASM 0202 页次3

  27  0000              	ENDIF
  27  0000              ;# 27 "e:\ht66f018_f12\main\main.c" 1
  27  0000              	IF (100<8) AND (100>3)
  27  0000              ;# 27 "e:\ht66f018_f12\main\main.c" 1
  27  0000              	CALL __DELAY3 + 7 -100
  27  0000              	ENDIF
  27  0000              ;# 27 "e:\ht66f018_f12\main\main.c" 1
  27  0000              	IF (100< 0404h) AND (100>7)
  27  0000              ;# 27 "e:\ht66f018_f12\main\main.c" 1
  27  0000  0F18        	MOV A,100/4-1
  27  0001              ;# 27 "e:\ht66f018_f12\main\main.c" 1
  27  0001  2000     E  	CALL __DELAYX3 + 3 -(100 MOD 4)
  27  0002              	ENDIF
  27  0002              ;# 27 "e:\ht66f018_f12\main\main.c" 1
  27  0002              	IF (100< 0x40B) AND (100> 0403h)
  27  0002              ;# 27 "e:\ht66f018_f12\main\main.c" 1
  27  0002              	MOV A,0 
  27  0002              ;# 27 "e:\ht66f018_f12\main\main.c" 1
  27  0002              	CALL __DELAYX6 + 0x40a -100
  27  0002              	ENDIF
  27  0002              ;# 27 "e:\ht66f018_f12\main\main.c" 1
  27  0002              	IF (100 >= 0x40b) AND ((((100-9)%0402h)/4+1)>256)
  27  0002              ;# 27 "e:\ht66f018_f12\main\main.c" 1
  27  0002              	MOV A,(100-9)/0402h
  27  0002              ;# 27 "e:\ht66f018_f12\main\main.c" 1
  27  0002              	MOV _builtin_holtek_delay_2,A
  27  0002              ;# 27 "e:\ht66f018_f12\main\main.c" 1
  27  0002              	MOV A,0
  27  0002              ;# 27 "e:\ht66f018_f12\main\main.c" 1
  27  0002              	CALL __DELAYY5 +5- (((100-9)%0402h)%6)
  27  0002              	ENDIF
  27  0002              ;# 27 "e:\ht66f018_f12\main\main.c" 1
  27  0002              	IF (100 >= 0x40b) AND ((((100-9)%0402h)/4+1)<=256)
  27  0002              ;# 27 "e:\ht66f018_f12\main\main.c" 1
  27  0002              	MOV A,(100-9)/0402h
  27  0002              ;# 27 "e:\ht66f018_f12\main\main.c" 1
  27  0002              	MOV _builtin_holtek_delay_2,A
  27  0002              ;# 27 "e:\ht66f018_f12\main\main.c" 1
  27  0002              	MOV A,((100-9)%0402h)/4+1
  27  0002              ;# 27 "e:\ht66f018_f12\main\main.c" 1
  27  0002              	CALL __DELAYY3 +3-(((100-9)%0402h)%4)
  27  0002              	ENDIF
  28  0002              #line 28 "e:\ht66f018_f12\main\main.c"
  28  0002  2000     E  	call _Init_clock
  30  0003              #line 30 "e:\ht66f018_f12\main\main.c"
  30  0003  1F00     E  	clr _GPIOA_INIT_2[2]
  30  0004  1F00     E  	clr _GPIOA_INIT_2[1]
  30  0005  1F00     E  	clr _GPIOA_INIT_2[0]
  30  0006  0F3A        	mov a,58
  30  0007  2000     E  	call _GPIOA_INIT
  31  0008              #line 31 "e:\ht66f018_f12\main\main.c"
  31  0008  1F00     E  	clr _GPIOB_INIT_2[1]
  31  0009  1F00     E  	clr _GPIOB_INIT_2[0]
  31  000A  0F78        	mov a,120
  31  000B  2000     E  	call _GPIOB_INIT
  32  000C              #line 32 "e:\ht66f018_f12\main\main.c"
  32  000C  1F00     E  	clr _GPIOC_INIT_2[1]
  32  000D  1F00     E  	clr _GPIOC_INIT_2[0]
  32  000E  0F01        	mov a,1
  32  000F  2000     E  	call _GPIOC_INIT
文件：main.c       编译器版本 HGASM 0202 页次4

  34  0010              #line 34 "e:\ht66f018_f12\main\main.c"
  34  0010  1F00     E  	clr _GPIOC_INIT_2[1]
  34  0011  0F01        	mov a,1
  34  0012  0080     E  	mov _GPIOC_INIT_2[0],a
  34  0013  0F06        	mov a,6
  34  0014  2000     E  	call _GPIOC_INIT
  36  0015              #line 36 "e:\ht66f018_f12\main\main.c"
  36  0015  2000     E  	call _init_TM1628
  38  0016              #line 38 "e:\ht66f018_f12\main\main.c"
  38  0016  2000     E  	call _rtc_init
  40  0017              #line 40 "e:\ht66f018_f12\main\main.c"
  40  0017  2000     E  	call _EEPROM_Init
  42  0018              #line 42 "e:\ht66f018_f12\main\main.c"
  42  0018  0F1F        	mov a,31
  42  0019  2000     E  	call _EEPROM_Read_Byte
  42  001A  0080     E  	mov ra,a
  42  001B  0700     E  	mov a,ra
  42  001C  0080     E  	mov _rtc_date[0],a
  43  001D              #line 43 "e:\ht66f018_f12\main\main.c"
  43  001D  0F20        	mov a,32
  43  001E  2000     E  	call _EEPROM_Read_Byte
  43  001F  0080     E  	mov ra,a
  43  0020  0700     E  	mov a,ra
  43  0021  0080     E  	mov _rtc_date[1],a
  46  0022              #line 46 "e:\ht66f018_f12\main\main.c"
  46  0022  3314        	set [20].6
  46  0023  3715        	clr [21].6
  46  0024  3316        	set [22].6
  50  0025              #line 50 "e:\ht66f018_f12\main\main.c"
  50  0025  2000     E  	call _ADC_Init
  52  0026              #line 52 "e:\ht66f018_f12\main\main.c"
  52  0026  0FE8        	mov a,-24
  52  0027  0080     E  	mov _use_delay_us_2[0],a
  52  0028  0F03        	mov a,3
  52  0029  0080     E  	mov _use_delay_us_2[1],a
  52  002A  2000     E  	call _use_delay_us
  54  002B              #line 54 "e:\ht66f018_f12\main\main.c"
  54  002B  300E        	set [14].0
  55  002C              #line 55 "e:\ht66f018_f12\main\main.c"
  55  002C  0F64        	mov a,100
  55  002D  2000     E  	call _UART_SoftWareSendByte
  25  002E              #line 25 "e:\ht66f018_f12\main\main.c"
  25  002E  0F63        	mov a,99
  25  002F  0080     R  	mov _main_2[1],a
  25  0030              _L2:
  59  0030              #line 59 "e:\ht66f018_f12\main\main.c"
  59  0030              ;# 59 "e:\ht66f018_f12\main\main.c" 1
  59  0030  0001        	clr wdt
  61  0031              #line 61 "e:\ht66f018_f12\main\main.c"
  61  0031  2000     E  	call _key_scan
  61  0032  0080     R  	mov _main_2[0],a
  63  0033              #line 63 "e:\ht66f018_f12\main\main.c"
  63  0033  0700     R  	mov a,_main_2[0]
  63  0034  0A01        	sub a,1
  63  0035  3D0A        	sz z
  63  0036  2800     R  	jmp _L4
  63  0037  0A01        	sub a,(2)-(1)
  63  0038  3D0A        	sz z
  63  0039  2800     R  	jmp _L5
  63  003A  0700     R  	mov a,_main_2[0]
文件：main.c       编译器版本 HGASM 0202 页次5

  63  003B  0A03        	sub a,3
  63  003C  3D0A        	sz z
  63  003D  2800     R  	jmp _L6
  63  003E  0A01        	sub a,(4)-(3)
  63  003F  3D0A        	sz z
  63  0040  2800     R  	jmp _L7
  63  0041  0700     R  	mov a,_main_2[0]
  63  0042  0A05        	sub a,5
  63  0043  3D0A        	sz z
  63  0044  2800     R  	jmp _L8
  63  0045  0A01        	sub a,(6)-(5)
  63  0046  3D0A        	sz z
  63  0047  2800     R  	jmp _L9
  63  0048  0700     R  	mov a,_main_2[0]
  63  0049  0A07        	sub a,7
  63  004A  390A        	snz z
  63  004B  2800     R  	jmp _L3
 109  004C              #line 109 "e:\ht66f018_f12\main\main.c"
 109  004C  0F04        	mov a,4
 109  004D  2000     E  	call _UART_SoftWareSendByte
 110  004E              #line 110 "e:\ht66f018_f12\main\main.c"
 110  004E  0FFB        	mov a,251
 110  004F  2800     R  	jmp _L25
 110  0050              _L7:
  67  0050              #line 67 "e:\ht66f018_f12\main\main.c"
  67  0050  0F0B        	mov a,11
  67  0051  2000     E  	call _UART_SoftWareSendByte
  68  0052              #line 68 "e:\ht66f018_f12\main\main.c"
  68  0052  2000     E  	call _set_time
  70  0053              #line 70 "e:\ht66f018_f12\main\main.c"
  70  0053  2800     R  	jmp _L3
  70  0054              _L6:
  74  0054              #line 74 "e:\ht66f018_f12\main\main.c"
  74  0054  0F01        	mov a,1
  74  0055  2000     E  	call _UART_SoftWareSendByte
  75  0056              #line 75 "e:\ht66f018_f12\main\main.c"
  75  0056  2000     E  	call _set_meal
  77  0057              #line 77 "e:\ht66f018_f12\main\main.c"
  77  0057  2800     R  	jmp _L3
  77  0058              _L8:
  81  0058              #line 81 "e:\ht66f018_f12\main\main.c"
  81  0058  1F00     R  	clr _feed[0]
  82  0059              #line 82 "e:\ht66f018_f12\main\main.c"
  82  0059  1F00     R  	clr _feed[1]
  83  005A              #line 83 "e:\ht66f018_f12\main\main.c"
  83  005A  0F01        	mov a,1
  83  005B  0080     R  	mov _feed[2],a
  84  005C              #line 84 "e:\ht66f018_f12\main\main.c"
  84  005C  0F01        	mov a,1
  84  005D  0080     R  	mov _feed[3],a
  86  005E              #line 86 "e:\ht66f018_f12\main\main.c"
  86  005E  0F01        	mov a,1
  86  005F  0080     E  	mov _feed_going[0],a
  87  0060              #line 87 "e:\ht66f018_f12\main\main.c"
  87  0060  0F02        	mov a,2
  87  0061  2000     E  	call _UART_SoftWareSendByte
  89  0062              #line 89 "e:\ht66f018_f12\main\main.c"
  89  0062  2800     R  	jmp _L3
  89  0063              _L9:
  93  0063              #line 93 "e:\ht66f018_f12\main\main.c"
文件：main.c       编译器版本 HGASM 0202 页次6

  93  0063  0F03        	mov a,3
  93  0064  2000     E  	call _UART_SoftWareSendByte
  94  0065              #line 94 "e:\ht66f018_f12\main\main.c"
  94  0065  1700     R  	sdza _record_flag[0]
  94  0066  2800     R  	jmp _LI1
  94  0067  2800     R  	jmp _L11
  94  0068              _LI1:
  96  0068              #line 96 "e:\ht66f018_f12\main\main.c"
  96  0068  0F01        	mov a,1
  96  0069  0080     R  	mov _record_flag[0],a
  97  006A              #line 97 "e:\ht66f018_f12\main\main.c"
  97  006A  0FFE        	mov a,254
  97  006B  2800     R  	jmp _L25
  97  006C              _L11:
 101  006C              #line 101 "e:\ht66f018_f12\main\main.c"
 101  006C  1F00     R  	clr _record_flag[0]
 102  006D              #line 102 "e:\ht66f018_f12\main\main.c"
 102  006D  0FFF        	mov a,255
 102  006E              _L25:
 102  006E  2000     E  	call _set_voice
 102  006F  2800     R  	jmp _L3
 102  0070              _L4:
 116  0070              #line 116 "e:\ht66f018_f12\main\main.c"
 116  0070  0F05        	mov a,5
 116  0071  2000     E  	call _UART_SoftWareSendByte
 117  0072              #line 117 "e:\ht66f018_f12\main\main.c"
 117  0072  0FE8        	mov a,-24
 117  0073  0080     E  	mov _use_delay_us_2[0],a
 117  0074  0F03        	mov a,3
 117  0075  0080     E  	mov _use_delay_us_2[1],a
 117  0076  2000     E  	call _use_delay_us
 118  0077              #line 118 "e:\ht66f018_f12\main\main.c"
 118  0077  1400     R  	inca _meal_flag[0]
 118  0078  0080     E  	mov ra,a
 118  0079  0700     E  	mov a,ra
 118  007A  0080     R  	mov _meal_flag[0],a
 119  007B              #line 119 "e:\ht66f018_f12\main\main.c"
 119  007B  0F06        	mov a,6
 119  007C  0200     E  	sub a,ra
 119  007D  1185        	swap acc
 119  007E  040A        	xor a,status
 119  007F  3985        	snz acc.3
 119  0080  2800     R  	jmp _L3
 120  0081              #line 120 "e:\ht66f018_f12\main\main.c"
 120  0081  1F00     R  	clr _meal_flag[0]
 120  0082  2800     R  	jmp _L3
 120  0083              _L5:
 126  0083              #line 126 "e:\ht66f018_f12\main\main.c"
 126  0083  0F0A        	mov a,10
 126  0084  2000     E  	call _UART_SoftWareSendByte
 127  0085              #line 127 "e:\ht66f018_f12\main\main.c"
 127  0085  0FE8        	mov a,-24
 127  0086  0080     E  	mov _use_delay_us_2[0],a
 127  0087  0F03        	mov a,3
 127  0088  0080     E  	mov _use_delay_us_2[1],a
 127  0089  2000     E  	call _use_delay_us
 128  008A              #line 128 "e:\ht66f018_f12\main\main.c"
 128  008A  1500     R  	deca _meal_flag[0]
 128  008B  0080     E  	mov ra,a
 128  008C  0700     E  	mov a,ra
文件：main.c       编译器版本 HGASM 0202 页次7

 128  008D  0080     R  	mov _meal_flag[0],a
 129  008E              #line 129 "e:\ht66f018_f12\main\main.c"
 129  008E  3800     E  	snz ra.7
 129  008F  2800     R  	jmp _L3
 130  0090              #line 130 "e:\ht66f018_f12\main\main.c"
 130  0090  0F06        	mov a,6
 130  0091  0080     R  	mov _meal_flag[0],a
 130  0092              _L3:
 135  0092              #line 135 "e:\ht66f018_f12\main\main.c"
 135  0092  3C00     R  	sz _meal_flag[0].7
 135  0093  2800     R  	jmp _L14
 135  0094  1080     R  	sz _meal_flag[0]
 135  0095  2800     R  	jmp _LI2
 135  0096  2800     R  	jmp _L14
 135  0097              _LI2:
 137  0097              #line 137 "e:\ht66f018_f12\main\main.c"
 137  0097  0F0C        	mov a,12
 137  0098  2000     E  	call _UART_SoftWareSendByte
 138  0099              #line 138 "e:\ht66f018_f12\main\main.c"
 138  0099  0700     R  	mov a,_meal_flag[0]
 138  009A  2000     E  	call _get_meal
 138  009B  2800     R  	jmp _L15
 138  009C              _L14:
 142  009C              #line 142 "e:\ht66f018_f12\main\main.c"
 142  009C  0F0D        	mov a,13
 142  009D  2000     E  	call _UART_SoftWareSendByte
 143  009E              #line 143 "e:\ht66f018_f12\main\main.c"
 143  009E  2000     E  	call _rtc_lcd
 143  009F              _L15:
 146  009F              #line 146 "e:\ht66f018_f12\main\main.c"
 146  009F  0700     R  	mov a,_record_flag[0]
 146  00A0  0A02        	sub a,2
 146  00A1  390A        	snz z
 146  00A2  2800     R  	jmp _L16
 148  00A3              #line 148 "e:\ht66f018_f12\main\main.c"
 148  00A3  0F0E        	mov a,14
 148  00A4  2000     E  	call _UART_SoftWareSendByte
 149  00A5              #line 149 "e:\ht66f018_f12\main\main.c"
 149  00A5  1F00     R  	clr _record_flag[0]
 150  00A6              #line 150 "e:\ht66f018_f12\main\main.c"
 150  00A6  0FFF        	mov a,255
 150  00A7  2000     E  	call _set_voice
 150  00A8              _L16:
 153  00A8              #line 153 "e:\ht66f018_f12\main\main.c"
 153  00A8  0700     R  	mov a,_main_2[1]
 153  00A9  0200     E  	sub a,_rtc_date[1]
 153  00AA  3D0A        	sz z
 153  00AB  2800     R  	jmp _L17
 155  00AC              #line 155 "e:\ht66f018_f12\main\main.c"
 155  00AC  0F0F        	mov a,15
 155  00AD  2000     E  	call _UART_SoftWareSendByte
 156  00AE              #line 156 "e:\ht66f018_f12\main\main.c"
 156  00AE  0700     E  	mov a,_rtc_date[1]
 156  00AF  0080     R  	mov _main_2[1],a
 158  00B0              #line 158 "e:\ht66f018_f12\main\main.c"
 158  00B0  0F00     R  	mov a,low offset _feed
 158  00B1  0080     E  	mov _feed_scan_2[0],a
 158  00B2  0F00     R  	mov a,high offset _feed
 158  00B3  0080     E  	mov _feed_scan_2[1],a
 158  00B4  2000     E  	call _feed_scan
文件：main.c       编译器版本 HGASM 0202 页次8

 158  00B5  2800     R  	jmp _L18
 158  00B6              _L17:
 160  00B6              #line 160 "e:\ht66f018_f12\main\main.c"
 160  00B6  1080     R  	sz _feed_detect_again[0]
 160  00B7  2800     R  	jmp _LI3
 160  00B8  2800     R  	jmp _L18
 160  00B9              _LI3:
 162  00B9              #line 162 "e:\ht66f018_f12\main\main.c"
 162  00B9  0700     E  	mov a,_feed_error[0]
 162  00BA  0E03        	and a,3
 162  00BB  0080     E  	mov ra,a
 162  00BC  1080     E  	sz ra
 162  00BD  2800     R  	jmp _L18
 164  00BE              #line 164 "e:\ht66f018_f12\main\main.c"
 164  00BE  0F01        	mov a,1
 164  00BF  0080     E  	mov _feed_going[0],a
 164  00C0              _L18:
 168  00C0              #line 168 "e:\ht66f018_f12\main\main.c"
 168  00C0  1080     E  	sz _feed_going[0]
 168  00C1  2800     R  	jmp _LI4
 168  00C2  2800     R  	jmp _L19
 168  00C3              _LI4:
 170  00C3              #line 170 "e:\ht66f018_f12\main\main.c"
 170  00C3  0F00     R  	mov a,low offset _feed
 170  00C4  0080     E  	mov _feed_run_2[0],a
 170  00C5  0F00     R  	mov a,high offset _feed
 170  00C6  0080     E  	mov _feed_run_2[1],a
 170  00C7  2000     E  	call _feed_run
 170  00C8  0080     E  	mov ra,a
 170  00C9  0700     E  	mov a,ra
 170  00CA  0080     E  	mov _feed_error[0],a
 172  00CB              #line 172 "e:\ht66f018_f12\main\main.c"
 172  00CB  0F03        	mov a,3
 172  00CC  0680     E  	andm a,ra
 172  00CD  1080     E  	sz ra
 172  00CE  2800     R  	jmp _LI5
 172  00CF  2800     R  	jmp _L20
 172  00D0              _LI5:
 174  00D0              #line 174 "e:\ht66f018_f12\main\main.c"
 174  00D0  0F01        	mov a,1
 174  00D1  0080     R  	mov _feed_detect_again[0],a
 174  00D2  2800     R  	jmp _L21
 174  00D3              _L20:
 178  00D3              #line 178 "e:\ht66f018_f12\main\main.c"
 178  00D3  1F00     R  	clr _feed_detect_again[0]
 178  00D4              _L21:
 181  00D4              #line 181 "e:\ht66f018_f12\main\main.c"
 181  00D4  1F00     E  	clr _feed_going[0]
 181  00D5              _L19:
 185  00D5              #line 185 "e:\ht66f018_f12\main\main.c"
 185  00D5  1080     R  	sz _col_staus[0]
 185  00D6  2800     R  	jmp _LI6
 185  00D7  2800     R  	jmp _L2
 185  00D8              _LI6:
 187  00D8              #line 187 "e:\ht66f018_f12\main\main.c"
 187  00D8  3C00     E  	sz _rtc_date[2].0
 187  00D9  2800     R  	jmp _L23
 189  00DA              #line 189 "e:\ht66f018_f12\main\main.c"
 189  00DA  1F00     E  	clr _builtin_holtek_udivmodqi4_2[3]
 189  00DB  0700     E  	mov a,_rtc_date[0]
文件：main.c       编译器版本 HGASM 0202 页次9

 189  00DC  0080     E  	mov _builtin_holtek_udivmodqi4_2[0],a
 189  00DD  0F0A        	mov a,10
 189  00DE  0080     E  	mov _builtin_holtek_udivmodqi4_2[1],a
 189  00DF  2000     E  	call _builtin_holtek_udivmodqi4
 189  00E0  0700     E  	mov a,_builtin_holtek_udivmodqi4_2[2]
 189  00E1  0080     E  	mov ra,a
 189  00E2  0F00     R  	mov a,low offset _Num_tab_7
 189  00E3  0300     E  	add a,ra
 189  00E4  0083        	mov mp,a
 189  00E5  0F00     R  	mov a,high offset _Num_tab_7
 189  00E6  1F01        	clr sbp
 189  00E7  1381        	adcm a,sbp
 189  00E8  2800     R  	jmp _L24
 189  00E9              _L23:
 193  00E9              #line 193 "e:\ht66f018_f12\main\main.c"
 193  00E9  1F00     E  	clr _builtin_holtek_udivmodqi4_2[3]
 193  00EA  0700     E  	mov a,_rtc_date[0]
 193  00EB  0080     E  	mov _builtin_holtek_udivmodqi4_2[0],a
 193  00EC  0F0A        	mov a,10
 193  00ED  0080     E  	mov _builtin_holtek_udivmodqi4_2[1],a
 193  00EE  2000     E  	call _builtin_holtek_udivmodqi4
 193  00EF  0700     E  	mov a,_builtin_holtek_udivmodqi4_2[2]
 193  00F0  0080     E  	mov ra,a
 193  00F1  0F00     R  	mov a,low offset _Num_tab_8
 193  00F2  0300     E  	add a,ra
 193  00F3  0083        	mov mp,a
 193  00F4  0F00     R  	mov a,high offset _Num_tab_8
 193  00F5  1F01        	clr sbp
 193  00F6  1381        	adcm a,sbp
 193  00F7              _L24:
 193  00F7  2000     E  	call _Crom2Prom
 193  00F8  0080     E  	mov _Write_DATA_2[0],a
 193  00F9  0FC2        	mov a,194
 193  00FA  2000     E  	call _Write_DATA
 193  00FB  2800     R  	jmp _L2
 193  00FC  2800     R  	jmp $
 193  00FD              _main endp
 193  00FD              
 193  00FD              @dummy endp
 193  00FD              
 193  00FD              #line 193 "e:\ht66f018_f12\main\main.c"
 193  00FD              #pragma debug scope 1 1
 193  00FD              public _INT0_ISR
 193  00FD              #pragma debug scope 3 1
 215  00FD              #line 215 "e:\ht66f018_f12\main\main.c"
 215  0000              @INT0_ISR_code .section at 4 'code'
 215  0000              _INT0_ISR:
 215  0000  0004        	reti
 215  0001              #line 215 "e:\ht66f018_f12\main\main.c"
 215  0001              #pragma debug scope 1 1
 215  0001              public _COMP_ISR
 215  0001              #pragma debug scope 4 1
 231  0001              #line 231 "e:\ht66f018_f12\main\main.c"
 231  0000              @COMP_ISR_code .section at 8 'code'
 231  0000              _COMP_ISR:
 231  0000  0004        	reti
 231  0001              #line 231 "e:\ht66f018_f12\main\main.c"
 231  0001              #pragma debug scope 1 1
 231  0001              ___mfi0 equ [17]
 231  0001              public _Timer0_ISR
文件：main.c       编译器版本 HGASM 0202 页次10

 231  0001              #pragma debug scope 5 1
 246  0001              #line 246 "e:\ht66f018_f12\main\main.c"
 246  0000              @Timer0_ISR_code .section at 12 'code'
 246  0000  0080     E  	mov r1,a
 246  0001  070A        	mov a,status
 246  0002  0080     E  	mov r2,a
 246  0003  2800     R  	jmp _Timer0_ISR
 246  0004              #pragma debug scope 1 1
 246  0004              @dummy12 endp
 246  0004              #pragma debug scope 6 1
 246  0000              _Timer0_ISR .section 'code'
 246  0000              _Timer0_ISR proc
 246  0000  00          local _Timer0_ISR_2 db 1 dup(?)
 253  0001              #line 253 "e:\ht66f018_f12\main\main.c"
 253  0000  3691        	clr [17].5
 255  0001              #line 255 "e:\ht66f018_f12\main\main.c"
 255  0001  0700     R  	mov a,_led_flag[0]
 255  0002  0080     R  	mov _Timer0_ISR_2[0],a
 255  0003  3800     R  	snz _Timer0_ISR_2[0].0
 255  0004  2800     R  	jmp _L30
 257  0005              #line 257 "e:\ht66f018_f12\main\main.c"
 257  0005  0F01        	mov a,1
 257  0006  0300     R  	add a,___led_blink1_1693[0]
 257  0007  0080     E  	mov rb,a
 257  0008  0F00        	mov a,0
 257  0009  1300     R  	adc a,___led_blink1_1693[1]
 257  000A  0080     E  	mov rc,a
 257  000B  0700     E  	mov a,rb
 257  000C  0080     R  	mov ___led_blink1_1693[0],a
 257  000D  0700     E  	mov a,rc
 257  000E  0080     R  	mov ___led_blink1_1693[1],a
 258  000F              #line 258 "e:\ht66f018_f12\main\main.c"
 258  000F  0F31        	mov a,49
 258  0010  0200     E  	sub a,rb
 258  0011  0F00        	mov a,0
 258  0012  1200     E  	sbc a,rc
 258  0013  3C0A        	sz c
 258  0014  2800     R  	jmp _L31
 260  0015              #line 260 "e:\ht66f018_f12\main\main.c"
 260  0015  1F00     E  	clr ra
 260  0016  3A14        	snz [20].4
 260  0017  3000     E  	set ra.4
 260  0018  3614        	clr [20].4
 260  0019  0700     E  	mov a,ra
 260  001A  0594        	orm a,[20]
 261  001B              #line 261 "e:\ht66f018_f12\main\main.c"
 261  001B  1F00     R  	clr ___led_blink1_1693[0]
 261  001C  1F00     R  	clr ___led_blink1_1693[1]
 261  001D  2800     R  	jmp _L31
 261  001E              _L30:
 265  001E              #line 265 "e:\ht66f018_f12\main\main.c"
 265  001E  3614        	clr [20].4
 265  001F              _L31:
 267  001F              #line 267 "e:\ht66f018_f12\main\main.c"
 267  001F  3800     R  	snz _Timer0_ISR_2[0].1
 267  0020  2800     R  	jmp _L32
 269  0021              #line 269 "e:\ht66f018_f12\main\main.c"
 269  0021  0F01        	mov a,1
 269  0022  0300     R  	add a,___led_blink2_1694[0]
 269  0023  0080     E  	mov rb,a
文件：main.c       编译器版本 HGASM 0202 页次11

 269  0024  0F00        	mov a,0
 269  0025  1300     R  	adc a,___led_blink2_1694[1]
 269  0026  0080     E  	mov rc,a
 269  0027  0700     E  	mov a,rb
 269  0028  0080     R  	mov ___led_blink2_1694[0],a
 269  0029  0700     E  	mov a,rc
 269  002A  0080     R  	mov ___led_blink2_1694[1],a
 270  002B              #line 270 "e:\ht66f018_f12\main\main.c"
 270  002B  0F31        	mov a,49
 270  002C  0200     E  	sub a,rb
 270  002D  0F00        	mov a,0
 270  002E  1200     E  	sbc a,rc
 270  002F  3C0A        	sz c
 270  0030  2800     R  	jmp _L33
 272  0031              #line 272 "e:\ht66f018_f12\main\main.c"
 272  0031  1F00     E  	clr ra
 272  0032  3A94        	snz [20].5
 272  0033  3000     E  	set ra.5
 272  0034  3694        	clr [20].5
 272  0035  0700     E  	mov a,ra
 272  0036  0594        	orm a,[20]
 273  0037              #line 273 "e:\ht66f018_f12\main\main.c"
 273  0037  1F00     R  	clr ___led_blink2_1694[0]
 273  0038  1F00     R  	clr ___led_blink2_1694[1]
 273  0039  2800     R  	jmp _L33
 273  003A              _L32:
 277  003A              #line 277 "e:\ht66f018_f12\main\main.c"
 277  003A  3694        	clr [20].5
 277  003B              _L33:
 279  003B              #line 279 "e:\ht66f018_f12\main\main.c"
 279  003B  1080     R  	sz _record_flag[0]
 279  003C  2800     R  	jmp _LI7
 279  003D  2800     R  	jmp _L35
 279  003E              _LI7:
 281  003E              #line 281 "e:\ht66f018_f12\main\main.c"
 281  003E  0F01        	mov a,1
 281  003F  0300     R  	add a,___record_time_1691[0]
 281  0040  0080     E  	mov rb,a
 281  0041  0F00        	mov a,0
 281  0042  1300     R  	adc a,___record_time_1691[1]
 281  0043  0080     E  	mov rc,a
 281  0044  0700     E  	mov a,rb
 281  0045  0080     R  	mov ___record_time_1691[0],a
 281  0046  0700     E  	mov a,rc
 281  0047  0080     R  	mov ___record_time_1691[1],a
 282  0048              #line 282 "e:\ht66f018_f12\main\main.c"
 282  0048  0FE7        	mov a,231
 282  0049  0200     E  	sub a,rb
 282  004A  0F03        	mov a,3
 282  004B  1200     E  	sbc a,rc
 282  004C  3C0A        	sz c
 282  004D  2800     R  	jmp _L35
 284  004E              #line 284 "e:\ht66f018_f12\main\main.c"
 284  004E  1F00     R  	clr ___record_time_1691[0]
 284  004F  1F00     R  	clr ___record_time_1691[1]
 285  0050              #line 285 "e:\ht66f018_f12\main\main.c"
 285  0050  0F02        	mov a,2
 285  0051  0080     R  	mov _record_flag[0],a
 285  0052              _L35:
 289  0052              #line 289 "e:\ht66f018_f12\main\main.c"
文件：main.c       编译器版本 HGASM 0202 页次12

 289  0052  1080     R  	sz _feed_detect_again[0]
 289  0053  2800     R  	jmp _LI8
 289  0054  2800     R  	jmp _L38
 289  0055              _LI8:
 291  0055              #line 291 "e:\ht66f018_f12\main\main.c"
 291  0055  0F01        	mov a,1
 291  0056  0300     R  	add a,___task_feed_again_1692[0]
 291  0057  0080     E  	mov rb,a
 291  0058  0F00        	mov a,0
 291  0059  1300     R  	adc a,___task_feed_again_1692[1]
 291  005A  0080     E  	mov rc,a
 291  005B  0700     E  	mov a,rb
 291  005C  0080     R  	mov ___task_feed_again_1692[0],a
 291  005D  0700     E  	mov a,rc
 291  005E  0080     R  	mov ___task_feed_again_1692[1],a
 293  005F              #line 293 "e:\ht66f018_f12\main\main.c"
 293  005F  0F30        	mov a,48
 293  0060  0200     E  	sub a,rb
 293  0061  0F75        	mov a,117
 293  0062  1200     E  	sbc a,rc
 293  0063  3C0A        	sz c
 293  0064  2800     R  	jmp _L38
 295  0065              #line 295 "e:\ht66f018_f12\main\main.c"
 295  0065  1F00     R  	clr _feed_detect_again[0]
 296  0066              #line 296 "e:\ht66f018_f12\main\main.c"
 296  0066  1F00     R  	clr ___task_feed_again_1692[0]
 296  0067  1F00     R  	clr ___task_feed_again_1692[1]
 296  0068              _L38:
 300  0068              #line 300 "e:\ht66f018_f12\main\main.c"
 300  0068  300E        	set [14].0
 300  0069  0700     E  	mov a,r2
 300  006A  008A        	mov status,a
 300  006B  0700     E  	mov a,r1
 300  006C  0004        	reti
 300  006D              _Timer0_ISR endp
 300  006D              
 300  006D              #line 300 "e:\ht66f018_f12\main\main.c"
 300  006D              #pragma debug scope 1 1
 300  006D              ___mfi1 equ [18]
 300  006D              public _Timer1_2_ISR
 300  006D              #pragma debug scope 7 1
 311  006D              #line 311 "e:\ht66f018_f12\main\main.c"
 311  0000              @Timer1_2_ISR_code .section at 16 'code'
 311  0000  0080     E  	mov r1,a
 311  0001  070A        	mov a,status
 311  0002  0080     E  	mov r2,a
 311  0003  2800     R  	jmp _Timer1_2_ISR
 311  0004              #pragma debug scope 1 1
 311  0004              @dummy16 endp
 311  0004              #pragma debug scope 8 1
 311  0000              _Timer1_2_ISR .section 'code'
 311  0000              _Timer1_2_ISR proc
 314  0000              #line 314 "e:\ht66f018_f12\main\main.c"
 314  0000  3692        	clr [18].5
 316  0001              #line 316 "e:\ht66f018_f12\main\main.c"
 316  0001  1080     E  	sz _user_delay_flag[0]
 316  0002  2800     R  	jmp _LI9
 316  0003  2800     R  	jmp _L42
 316  0004              _LI9:
 318  0004              #line 318 "e:\ht66f018_f12\main\main.c"
文件：main.c       编译器版本 HGASM 0202 页次13

 318  0004  1480     E  	inc _user_delay_time[0]
 318  0005  3D0A        	sz z
 318  0006  1480     E  	inc _user_delay_time[1]
 319  0007              #line 319 "e:\ht66f018_f12\main\main.c"
 319  0007  0FFD        	mov a,253
 319  0008  0200     E  	sub a,_user_delay_time[0]
 319  0009  0FFF        	mov a,255
 319  000A  1200     E  	sbc a,_user_delay_time[1]
 319  000B  3C0A        	sz c
 319  000C  2800     R  	jmp _L42
 320  000D              #line 320 "e:\ht66f018_f12\main\main.c"
 320  000D  0FFE        	mov a,-2
 320  000E  0080     E  	mov _user_delay_time[0],a
 320  000F  1F80     E  	set _user_delay_time[1]
 320  0010              _L42:
 323  0010              #line 323 "e:\ht66f018_f12\main\main.c"
 323  0010  300E        	set [14].0
 323  0011  0700     E  	mov a,r2
 323  0012  008A        	mov status,a
 323  0013  0700     E  	mov a,r1
 323  0014  0004        	reti
 323  0015              _Timer1_2_ISR endp
 323  0015              
 323  0015              #line 323 "e:\ht66f018_f12\main\main.c"
 323  0015              #pragma debug scope 1 1
 323  0015              public _LVD_EEPROM_ISR
 323  0015              #pragma debug scope 9 1
 337  0015              #line 337 "e:\ht66f018_f12\main\main.c"
 337  0000              @LVD_EEPROM_ISR_code .section at 20 'code'
 337  0000              _LVD_EEPROM_ISR:
 337  0000  0004        	reti
 337  0001              #line 337 "e:\ht66f018_f12\main\main.c"
 337  0001              #pragma debug scope 1 1
 337  0001              public _ADC_ISR
 337  0001              #pragma debug scope 10 1
 352  0001              #line 352 "e:\ht66f018_f12\main\main.c"
 352  0000              @ADC_ISR_code .section at 24 'code'
 352  0000              _ADC_ISR:
 352  0000  0004        	reti
 352  0001              #line 352 "e:\ht66f018_f12\main\main.c"
 352  0001              #pragma debug scope 1 1
 352  0001              ___intc1 equ [15]
 352  0001              public _TB0_ISR
 352  0001              #pragma debug scope 11 1
 368  0001              #line 368 "e:\ht66f018_f12\main\main.c"
 368  0000              @TB0_ISR_code .section at 28 'code'
 368  0000  0080     E  	mov r1,a
 368  0001  070A        	mov a,status
 368  0002  0080     E  	mov r2,a
 368  0003  2800     R  	jmp _TB0_ISR
 368  0004              #pragma debug scope 1 1
 368  0004              @dummy28 endp
 368  0004              #pragma debug scope 12 1
 368  0000              _TB0_ISR .section 'code'
 368  0000              _TB0_ISR proc
 371  0000              #line 371 "e:\ht66f018_f12\main\main.c"
 371  0000  378F        	clr [15].7
 373  0001              #line 373 "e:\ht66f018_f12\main\main.c"
 373  0001  1480     E  	inc _rtc_date[2]
 374  0002              #line 374 "e:\ht66f018_f12\main\main.c"
文件：main.c       编译器版本 HGASM 0202 页次14

 374  0002  0F3B        	mov a,59
 374  0003  0200     E  	sub a,_rtc_date[2]
 374  0004  3C0A        	sz c
 374  0005  2800     R  	jmp _L48
 376  0006              #line 376 "e:\ht66f018_f12\main\main.c"
 376  0006  1480     E  	inc _rtc_date[1]
 377  0007              #line 377 "e:\ht66f018_f12\main\main.c"
 377  0007  1F00     E  	clr _rtc_date[2]
 379  0008              #line 379 "e:\ht66f018_f12\main\main.c"
 379  0008  0F3B        	mov a,59
 379  0009  0200     E  	sub a,_rtc_date[1]
 379  000A  3C0A        	sz c
 379  000B  2800     R  	jmp _L48
 381  000C              #line 381 "e:\ht66f018_f12\main\main.c"
 381  000C  1480     E  	inc _rtc_date[0]
 382  000D              #line 382 "e:\ht66f018_f12\main\main.c"
 382  000D  1F00     E  	clr _rtc_date[1]
 384  000E              #line 384 "e:\ht66f018_f12\main\main.c"
 384  000E  0F17        	mov a,23
 384  000F  0200     E  	sub a,_rtc_date[0]
 384  0010  3C0A        	sz c
 384  0011  2800     R  	jmp _L48
 386  0012              #line 386 "e:\ht66f018_f12\main\main.c"
 386  0012  1F00     E  	clr _rtc_date[0]
 386  0013              _L48:
 391  0013              #line 391 "e:\ht66f018_f12\main\main.c"
 391  0013  300E        	set [14].0
 391  0014  0700     E  	mov a,r2
 391  0015  008A        	mov status,a
 391  0016  0700     E  	mov a,r1
 391  0017  0004        	reti
 391  0018              _TB0_ISR endp
 391  0018              
 391  0018              #line 391 "e:\ht66f018_f12\main\main.c"
 391  0018              #pragma debug scope 1 1
 391  0018              public _TB1_ISR
 391  0018              #pragma debug scope 13 1
 403  0018              #line 403 "e:\ht66f018_f12\main\main.c"
 403  0000              @TB1_ISR_code .section at 32 'code'
 403  0000              _TB1_ISR:
 403  0000  0004        	reti
 403  0001              #line 403 "e:\ht66f018_f12\main\main.c"
 403  0001              #pragma debug scope 1 1
 403  0001              public _INT1_ISR
 403  0001              #pragma debug scope 14 1
 419  0001              #line 419 "e:\ht66f018_f12\main\main.c"
 419  0000              @INT1_ISR_code .section at 36 'code'
 419  0000              _INT1_ISR:
 419  0000  0004        	reti
 419  0001              #line 419 "e:\ht66f018_f12\main\main.c"
 419  0001              #pragma debug scope 1 1
 419  0000              @HCCINIT	.section 'data'
 249  0000              #line 249 "e:\ht66f018_f12\main\main.c"
 249  0000              @HCCINIT .section 'data'
 249  0000              ___task_feed_again_1692 label byte
 249  0000              #pragma debug variable 10 6 ___task_feed_again_1692 "task_feed_again"
 249  0000              	db 0
 249  0000              @ROMDATA_BASE .section inpage 'code'
 249  0000              	db 0
 249  0001              @HCCINIT .section 'data'
文件：main.c       编译器版本 HGASM 0202 页次15

 249  0001              	db 0
 249  0001              @ROMDATA_BASE .section inpage 'code'
 249  0001              	db 0
 249  0002              @HCCINIT .section 'data'
 248  0002              #line 248 "e:\ht66f018_f12\main\main.c"
 248  0002              @HCCINIT .section 'data'
 248  0002              ___record_time_1691 label byte
 248  0002              #pragma debug variable 10 6 ___record_time_1691 "record_time"
 248  0002              	db 0
 248  0001              @ROMDATA_BASE .section inpage 'code'
 248  0001              	db 0
 248  0003              @HCCINIT .section 'data'
 248  0003              	db 0
 248  0002              @ROMDATA_BASE .section inpage 'code'
 248  0002              	db 0
 248  0004              @HCCINIT .section 'data'
 251  0004              #line 251 "e:\ht66f018_f12\main\main.c"
 251  0004              @HCCINIT .section 'data'
 251  0004              ___led_blink2_1694 label byte
 251  0004              #pragma debug variable 10 6 ___led_blink2_1694 "led_blink2"
 251  0004              	db 0
 251  0002              @ROMDATA_BASE .section inpage 'code'
 251  0002              	db 0
 251  0005              @HCCINIT .section 'data'
 251  0005              	db 0
 251  0003              @ROMDATA_BASE .section inpage 'code'
 251  0003              	db 0
 251  0006              @HCCINIT .section 'data'
 250  0006              #line 250 "e:\ht66f018_f12\main\main.c"
 250  0006              @HCCINIT .section 'data'
 250  0006              ___led_blink1_1693 label byte
 250  0006              #pragma debug variable 10 6 ___led_blink1_1693 "led_blink1"
 250  0006              	db 0
 250  0003              @ROMDATA_BASE .section inpage 'code'
 250  0003              	db 0
 250  0007              @HCCINIT .section 'data'
 250  0007              	db 0
 250  0004              @ROMDATA_BASE .section inpage 'code'
 250  0004              	db 0
 250  0008              @HCCINIT .section 'data'
  19  0008              #line 19 "e:\ht66f018_f12\main\main.c"
  19  0008              public _feed
  19  0000              @HCCINIT0 .section 'data'
  19  0000  0004[       _feed	db 4 dup(0)
            00
            ]
  19  0004              #pragma debug struct_end
  19  0004              #pragma debug struct_end
  19  0004              #pragma debug variable 42 1 _feed "feed"
  19  0004              
  19  0008              @HCCINIT .section 'data'
  19  0008              public _meal_flag
  18  0008              #line 18 "e:\ht66f018_f12\main\main.c"
  18  0008              @HCCINIT .section 'data'
  18  0008              _meal_flag label byte
  18  0008              #pragma debug variable 7 1 _meal_flag "meal_flag"
  18  0008              	db 0
  18  0004              @ROMDATA_BASE .section inpage 'code'
  18  0004              	db 0
  18  0009              @HCCINIT .section 'data'
文件：main.c       编译器版本 HGASM 0202 页次16

  18  0009              public _col_staus
  17  0009              #line 17 "e:\ht66f018_f12\main\main.c"
  17  0009              @HCCINIT .section 'data'
  17  0009              _col_staus label byte
  17  0009              #pragma debug variable 8 1 _col_staus "col_staus"
  17  0009              	db 1
  17  0005              @ROMDATA_BASE .section inpage 'code'
  17  0005              	db 1
  17  000A              @HCCINIT .section 'data'
  17  000A              public _feed_detect_again
  16  000A              #line 16 "e:\ht66f018_f12\main\main.c"
  16  000A              @HCCINIT .section 'data'
  16  000A              _feed_detect_again label byte
  16  000A              #pragma debug variable 8 1 _feed_detect_again "feed_detect_again"
  16  000A              	db 0
  16  0005              @ROMDATA_BASE .section inpage 'code'
  16  0005              	db 0
  16  000B              @HCCINIT .section 'data'
  16  000B              public _record_flag
  15  000B              #line 15 "e:\ht66f018_f12\main\main.c"
  15  000B              @HCCINIT .section 'data'
  15  000B              _record_flag label byte
  15  000B              #pragma debug variable 8 1 _record_flag "record_flag"
  15  000B              	db 0
  15  0006              @ROMDATA_BASE .section inpage 'code'
  15  0006              	db 0
  15  000C              @HCCINIT .section 'data'
  15  000C              public _led_flag
  14  000C              #line 14 "e:\ht66f018_f12\main\main.c"
  14  000C              @HCCINIT .section 'data'
  14  000C              _led_flag label byte
  14  000C              #pragma debug variable 8 1 _led_flag "led_flag"
  14  000C              	db 0
  14  0006              @ROMDATA_BASE .section inpage 'code'
  14  0006              	db 0
  14  000D              @HCCINIT .section 'data'
  14  0000              @crom	.section 'crom'

 319  0000              #line 319 "e:\ht66f018_f12\main\define.h"
 319  0000              @crom	.section	'crom'
 319  0000              _Num_tab_8:
 319  0000              #pragma debug array 43 8 10 1
 319  0000              #pragma debug array 43 8 10 1
 319  0000              #pragma debug variable 43 1 _Num_tab_8 "Num_tab_8"
 319  0000              	db -65
 319  0001              	db -122
 319  0001              	db -37
 319  0002              	db -49
 319  0002              	db -26
 319  0003              	db -19
 319  0003              	db -3
 319  0004              	db -121
 319  0004              	db -1
 319  0005              	db -17
 318  0005              #line 318 "e:\ht66f018_f12\main\define.h"
 318  0005              @crom	.section	'crom'
 318  0005              _Num_tab_7:
 318  0005              #pragma debug variable 43 1 _Num_tab_7 "Num_tab_7"
 318  0005              	db 63
 318  0006              	db 6
文件：define.h     编译器版本 HGASM 0202 页次17

 318  0006              	db 91
 318  0007              	db 79
 318  0007              	db 102
 318  0008              	db 109
 318  0008              	db 125
 318  0009              	db 7
 318  0009              	db 127
 318  000A              	db 111
 318  000A              #pragma debug struct_end
 318  000A              #pragma debug struct_end
 318  000A              #pragma debug union_end
 318  000A              #pragma debug union_end
 318  000A              #pragma debug variable 45 1 ___intc0 "__intc0" 1
 318  000A              #pragma debug struct_end
 318  000A              #pragma debug struct_end
 318  000A              #pragma debug union_end
 318  000A              #pragma debug union_end
 318  000A              #pragma debug variable 47 1 ___intc1 "__intc1" 1
 318  000A              #pragma debug struct_end
 318  000A              #pragma debug struct_end
 318  000A              #pragma debug union_end
 318  000A              #pragma debug union_end
 318  000A              #pragma debug variable 49 1 ___mfi0 "__mfi0" 1
 318  000A              #pragma debug struct_end
 318  000A              #pragma debug struct_end
 318  000A              #pragma debug union_end
 318  000A              #pragma debug union_end
 318  000A              #pragma debug variable 51 1 ___mfi1 "__mfi1" 1
 318  000A              #pragma debug struct_end
 318  000A              #pragma debug struct_end
 318  000A              #pragma debug union_end
 318  000A              #pragma debug union_end
 318  000A              #pragma debug variable 53 1 ___pa "__pa" 1
 318  000A              #pragma debug struct_end
 318  000A              #pragma debug struct_end
 318  000A              #pragma debug union_end
 318  000A              #pragma debug union_end
 318  000A              #pragma debug variable 55 1 ___pac "__pac" 1
 318  000A              #pragma debug struct_end
 318  000A              #pragma debug struct_end
 318  000A              #pragma debug union_end
 318  000A              #pragma debug union_end
 318  000A              #pragma debug variable 57 1 ___papu "__papu" 1
 318  000A              
 318  000A              ; output external variables
 318  000A              extern _user_delay_time:byte
 318  000A              extern _user_delay_flag:byte
 318  000A              extern _feed_error:byte
 318  000A              extern _feed_going:byte
 318  000A              extern _rtc_date:byte
 318  000A              extern r1:byte
 318  000A              extern r2:byte

  23  000A              #line 23 "e:\ht66f018_f12\main\main.c"
  23  0000              @code .section at 0 'code'
  23  0000  2800     R  	jmp _main_startup1
  23  0001              
  23  0001              extern _Init_clock:near
  23  0001              extern _GPIOA_INIT_2:byte
  23  0001              extern _GPIOA_INIT:near
文件：main.c       编译器版本 HGASM 0202 页次18

  23  0001              extern _GPIOB_INIT_2:byte
  23  0001              extern _GPIOB_INIT:near
  23  0001              extern _GPIOC_INIT_2:byte
  23  0001              extern _GPIOC_INIT:near
  23  0001              extern _init_TM1628:near
  23  0001              extern _rtc_init:near
  23  0001              extern _EEPROM_Init:near
  23  0001              extern _EEPROM_Read_Byte:near
  23  0001              extern _ADC_Init:near
  23  0001              extern _use_delay_us_2:byte
  23  0001              extern _use_delay_us:near
  23  0001              extern _UART_SoftWareSendByte:near
  23  0001              extern _key_scan:near
  23  0001              extern _set_time:near
  23  0001              extern _set_meal:near
  23  0001              extern _set_voice:near
  23  0001              extern _get_meal:near
  23  0001              extern _rtc_lcd:near
  23  0001              extern _feed_scan_2:byte
  23  0001              extern _feed_scan:near
  23  0001              extern _feed_run_2:byte
  23  0001              extern _feed_run:near
  23  0001              extern _builtin_holtek_udivmodqi4_2:byte
  23  0001              extern _builtin_holtek_udivmodqi4:near
  23  0001              extern _Write_DATA_2:byte
  23  0001              extern _Write_DATA:near
  23  0001              
  23  0001              ; 
  23  0001              ; Generated by holtek-gcc v3.19, Fri Jan 21 10:08:32 2022
  23  0001              ; Rebuild 718
  23  0001              ; end of file


        0 Errors, 0