文件：define.h     编译器版本 HGASM 0202 页次1


   1  0000              ; Generated by holtek-gcc v3.19, Fri Jan 21 10:08:33 2022
   2  0000              ; 
   3  0000              ; Configuration:
   4  0000              ;       without long instruction
   5  0000              ;       Single ROM, Multi-RAM
   6  0000              ;       bits_per_rom_unit:16
   7  0000              ;       with mp1
   8  0000              ;       with tbhp, address(0x9)
   9  0000              ;          Use tabrd-const
  10  0000              ;       
  11  0000              ;       
  12  0000              ;       
  13  0000              ; use 'tabrdc' instead of 'tabrd'
  14  0000              ;       
  15  0000              
  16  0000              #pragma translator "holtek-gcc 4.6.4" "3.19" "build 20130711"
  17  0000              ; Rebuild 718
  18  0000              
  19  0000              ir equ [2]
  20  0000              mp equ [3]
  21  0000              sbp equ [1]
  22  0000              acc equ [5]
  23  0000              bp equ [4]
  24  0000              tblp equ [7]
  25  0000              tbhp equ [9]
  26  0000              status equ [10]
  27  0000              c equ [10].0
  28  0000              ac equ [10].1
  29  0000              z equ [10].2
  30  0000              ov equ [10].3
  31  0000              intc equ [11]
  32  0000              
  33  0000              extern ra:byte
  34  0000              extern rb:byte
  35  0000              extern rc:byte
  36  0000              extern rd:byte
  37  0000              extern re:byte
  38  0000              extern rf:byte
  39  0000              extern rg:byte
  40  0000              extern rh:byte
  41  0000              extern _Crom2Prom:near
  42  0000              extern _Crom2PromNext:near
  43  0000              
  44  0000              RAMBANK 0 @HCCINIT, @HCCINIT0
  45  0000              
  46  0000              RAMBANK 0 @BITDATASEC, @BITDATASEC1
  47  0000              @HCCINIT	.section 'data'
  48  0000              @HCCINIT0	.section 'data'
  49  0000              @BITDATASEC	 .section 'data'
  50  0000              @BITDATASEC1	 .section 'data'
  51  0000              
  52  0000              #pragma debug scope 1 1
  53  0000              	extern __DELAY3:near
  54  0000              	extern __DELAYX3:near
  55  0000              	extern __DELAYX6:near
  56  0000              	extern __DELAYY5:near
  57  0000              	extern __DELAYY3:near
  58  0000              	extern _builtin_holtek_delay_2:byte
  59  0000              public _set_val
文件：menu.ASM     编译器版本 HGASM 0202 页次2

  60  0000              #pragma debug scope 2 1

  18  0000              #line 18 "e:\ht66f018_f12\main\menu.c"
  18  0000              _set_val .section 'code'
  18  0000              _set_val proc
  18  0000              public _set_val_2
  18  0000  0009[           local _set_val_2 db 9 dup(?)	; 3,6
            00
            ]
  18  0000  0080     E  	mov ra,a
  18  0001  0080     R  	mov _set_val_2[3],a
  18  0002              #pragma debug variable 7 2 _set_val_2+3 "dat"
  18  0002              #pragma debug variable 7 2 _set_val_2+0 "min"
  18  0002              #pragma debug variable 7 2 _set_val_2+1 "max"
  18  0002              #pragma debug variable 8 2 _set_val_2+2 "addr"
  18  0002              #pragma debug variable 8 2 _set_val_2+4 "val"
  18  0002              #pragma debug variable 8 2 _set_val_2+8 "key_value_2"
  18  0002              #pragma debug variable 12 2 _set_val_2+6 "timeout"
  18  0002              #pragma debug variable 8 2 _set_val_2+5 "blink_time"
  19  0002              #line 19 "e:\ht66f018_f12\main\menu.c"
  19  0002  0700     E  	mov a,ra
  19  0003  0080     R  	mov _set_val_2[4],a
  23  0004              #line 23 "e:\ht66f018_f12\main\menu.c"
  23  0004  1F00     R  	clr _set_val_2[5]
  22  0005              #line 22 "e:\ht66f018_f12\main\menu.c"
  22  0005  0FBC        	mov a,-68
  22  0006  0080     R  	mov _set_val_2[6],a
  22  0007  0F02        	mov a,2
  22  0008  0080     R  	mov _set_val_2[7],a
  22  0009              _L20:
  27  0009              #line 27 "e:\ht66f018_f12\main\menu.c"
  27  0009              ;# 27 "e:\ht66f018_f12\main\menu.c" 1
  27  0009  0001        	clr wdt
  29  000A              #line 29 "e:\ht66f018_f12\main\menu.c"
  29  000A  2000     E  	call _key_scan
  29  000B  0080     R  	mov _set_val_2[8],a
  30  000C              #line 30 "e:\ht66f018_f12\main\menu.c"
  30  000C  0700     R  	mov a,_set_val_2[8]
  30  000D  0A01        	sub a,1
  30  000E  3D0A        	sz z
  30  000F  2800     R  	jmp _L3
  30  0010  0A01        	sub a,(2)-(1)
  30  0011  3D0A        	sz z
  30  0012  2800     R  	jmp _L4
  30  0013  0700     R  	mov a,_set_val_2[8]
  30  0014  0A03        	sub a,3
  30  0015  3D0A        	sz z
  30  0016  2800     R  	jmp _L5
  30  0017  0700     R  	mov a,_set_val_2[8]
  30  0018  0A04        	sub a,4
  30  0019  390A        	snz z
  30  001A  2800     R  	jmp _L2
  30  001B  2800     R  	jmp _L38
  30  001C              _L4:
  34  001C              #line 34 "e:\ht66f018_f12\main\menu.c"
  34  001C  0F06        	mov a,6
  34  001D  2000     E  	call _UART_SoftWareSendByte
  36  001E              #line 36 "e:\ht66f018_f12\main\menu.c"
  36  001E  0700     R  	mov a,_set_val_2[4]
  36  001F  0080     E  	mov rd,a
文件：menu.c       编译器版本 HGASM 0202 页次3

  36  0020  1F00     E  	clr re
  36  0021  0700     R  	mov a,_set_val_2[0]
  36  0022  0080     E  	mov rb,a
  36  0023  1F00     E  	clr rc
  36  0024  3F85        	sz acc.7
  36  0025  1F80     E  	set rc
  36  0026  0700     E  	mov a,rb
  36  0027  0200     E  	sub a,rd
  36  0028  0700     E  	mov a,rc
  36  0029  1200     E  	sbc a,re
  36  002A  1185        	swap acc
  36  002B  040A        	xor a,status
  36  002C  3985        	snz acc.3
  36  002D  2800     R  	jmp _L7
  37  002E              #line 37 "e:\ht66f018_f12\main\menu.c"
  37  002E  1580     R  	dec _set_val_2[4]
  37  002F  2800     R  	jmp _L27
  37  0030              _L7:
  38  0030              #line 38 "e:\ht66f018_f12\main\menu.c"
  38  0030  0700     E  	mov a,rd
  38  0031  0400     E  	xor a,rb
  38  0032  0700     E  	mov a,re
  38  0033  3D0A        	sz z
  38  0034  0400     E  	xor a,rc
  38  0035  390A        	snz z
  38  0036  2800     R  	jmp _L27
  39  0037              #line 39 "e:\ht66f018_f12\main\menu.c"
  39  0037  0700     R  	mov a,_set_val_2[1]
  39  0038  0080     R  	mov _set_val_2[4],a
  39  0039  2800     R  	jmp _L27
  39  003A              _L3:
  47  003A              #line 47 "e:\ht66f018_f12\main\menu.c"
  47  003A  0F07        	mov a,7
  47  003B  2000     E  	call _UART_SoftWareSendByte
  49  003C              #line 49 "e:\ht66f018_f12\main\menu.c"
  49  003C  1480     R  	inc _set_val_2[4]
  50  003D              #line 50 "e:\ht66f018_f12\main\menu.c"
  50  003D  0700     R  	mov a,_set_val_2[4]
  50  003E  0080     E  	mov rd,a
  50  003F  1F00     E  	clr re
  50  0040  0700     R  	mov a,_set_val_2[1]
  50  0041  0080     E  	mov rb,a
  50  0042  1F00     E  	clr rc
  50  0043  3F85        	sz acc.7
  50  0044  1F80     E  	set rc
  50  0045  0700     E  	mov a,rb
  50  0046  0200     E  	sub a,rd
  50  0047  0700     E  	mov a,rc
  50  0048  1200     E  	sbc a,re
  50  0049  1185        	swap acc
  50  004A  040A        	xor a,status
  50  004B  3985        	snz acc.3
  50  004C  2800     R  	jmp _L27
  51  004D              #line 51 "e:\ht66f018_f12\main\menu.c"
  51  004D  0700     R  	mov a,_set_val_2[0]
  51  004E  0080     R  	mov _set_val_2[4],a
  51  004F  2800     R  	jmp _L27
  51  0050              _L38:
  59  0050              #line 59 "e:\ht66f018_f12\main\menu.c"
  59  0050  0F25        	mov a,37
文件：menu.c       编译器版本 HGASM 0202 页次4

  59  0051  2000     E  	call _UART_SoftWareSendByte
  60  0052              #line 60 "e:\ht66f018_f12\main\menu.c"
  60  0052  1080     R  	sz _set_time_flag[0]
  60  0053  2800     R  	jmp _LI1
  60  0054  2800     R  	jmp _L2
  60  0055              _LI1:
  60  0055  2800     R  	jmp _L34
  60  0056              _L5:
  70  0056              #line 70 "e:\ht66f018_f12\main\menu.c"
  70  0056  0F26        	mov a,38
  70  0057  2000     E  	call _UART_SoftWareSendByte
  71  0058              #line 71 "e:\ht66f018_f12\main\menu.c"
  71  0058  1080     R  	sz _set_meal_flag[0]
  71  0059  2800     R  	jmp _LI2
  71  005A  2800     R  	jmp _L2
  71  005B              _LI2:
  71  005B              _L34:
  73  005B              #line 73 "e:\ht66f018_f12\main\menu.c"
  73  005B  0F02        	mov a,2
  73  005C  0080     R  	mov _set_val_flag[0],a
  74  005D              #line 74 "e:\ht66f018_f12\main\menu.c"
  74  005D  2800     R  	jmp _L8
  74  005E              _L27:
  53  005E              #line 53 "e:\ht66f018_f12\main\menu.c"
  53  005E  0FF4        	mov a,-12
  53  005F  0080     R  	mov _set_val_2[6],a
  53  0060  0F01        	mov a,1
  53  0061  0080     R  	mov _set_val_2[7],a
  53  0062              _L2:
  80  0062              #line 80 "e:\ht66f018_f12\main\menu.c"
  80  0062  1480     R  	inc _set_val_2[5]
  81  0063              #line 81 "e:\ht66f018_f12\main\menu.c"
  81  0063  0FC7        	mov a,199
  81  0064  0200     R  	sub a,_set_val_2[5]
  81  0065  380A        	snz c
  81  0066  2800     R  	jmp _L9
  85  0067              #line 85 "e:\ht66f018_f12\main\menu.c"
  85  0067  0700     R  	mov a,_set_val_2[5]
  85  0068  0A64        	sub a,100
  85  0069  390A        	snz z
  85  006A  2800     R  	jmp _L10
  87  006B              #line 87 "e:\ht66f018_f12\main\menu.c"
  87  006B  0700     R  	mov a,_set_val_2[2]
  87  006C  0A01        	sub a,1
  87  006D  3D0A        	sz z
  87  006E  2800     R  	jmp _L12
  87  006F  0A01        	sub a,(2)-(1)
  87  0070  3D0A        	sz z
  87  0071  2800     R  	jmp _L13
  87  0072  0700     R  	mov a,_set_val_2[2]
  87  0073  0A03        	sub a,3
  87  0074  3D0A        	sz z
  87  0075  2800     R  	jmp _L14
  87  0076  0700     R  	mov a,_set_val_2[2]
  87  0077  0A04        	sub a,4
  87  0078  390A        	snz z
  87  0079  2800     R  	jmp _L11
 111  007A              #line 111 "e:\ht66f018_f12\main\menu.c"
 111  007A  1F00     E  	clr _builtin_holtek_udivmodqi4_2[3]
 111  007B  0700     R  	mov a,_set_val_2[4]
文件：menu.c       编译器版本 HGASM 0202 页次5

 111  007C  0080     E  	mov _builtin_holtek_udivmodqi4_2[0],a
 111  007D  0F0A        	mov a,10
 111  007E  0080     E  	mov _builtin_holtek_udivmodqi4_2[1],a
 111  007F  2000     E  	call _builtin_holtek_udivmodqi4
 111  0080  0700     E  	mov a,_builtin_holtek_udivmodqi4_2[0]
 111  0081  0080     E  	mov ra,a
 111  0082  0F00     R  	mov a,low offset _Num_tab_7
 111  0083  0300     E  	add a,ra
 111  0084  0083        	mov mp,a
 111  0085  0F00     R  	mov a,high offset _Num_tab_7
 111  0086  1F01        	clr sbp
 111  0087  1381        	adcm a,sbp
 111  0088  2000     E  	call _Crom2Prom
 111  0089  0080     E  	mov _Write_DATA_2[0],a
 111  008A  0FC4        	mov a,196
 111  008B  2000     E  	call _Write_DATA
 112  008C              #line 112 "e:\ht66f018_f12\main\menu.c"
 112  008C  1F00     E  	clr _builtin_holtek_udivmodqi4_2[3]
 112  008D  0700     R  	mov a,_set_val_2[4]
 112  008E  0080     E  	mov _builtin_holtek_udivmodqi4_2[0],a
 112  008F  0F0A        	mov a,10
 112  0090  0080     E  	mov _builtin_holtek_udivmodqi4_2[1],a
 112  0091  2000     E  	call _builtin_holtek_udivmodqi4
 112  0092  0700     E  	mov a,_builtin_holtek_udivmodqi4_2[2]
 112  0093  0080     E  	mov ra,a
 112  0094  0F00     R  	mov a,low offset _Num_tab_7
 112  0095  0300     E  	add a,ra
 112  0096  0083        	mov mp,a
 112  0097  0F00     R  	mov a,high offset _Num_tab_7
 112  0098  1F01        	clr sbp
 112  0099  1381        	adcm a,sbp
 112  009A  2000     E  	call _Crom2Prom
 112  009B  0080     E  	mov _Write_DATA_2[0],a
 112  009C  0FC6        	mov a,198
 112  009D  2800     R  	jmp _L33
 112  009E              _L12:
  91  009E              #line 91 "e:\ht66f018_f12\main\menu.c"
  91  009E  0F00     R  	mov a,low offset _Num_tab_7
  91  009F  0300     R  	add a,_set_val_2[4]
  91  00A0  0083        	mov mp,a
  91  00A1  0F00     R  	mov a,high offset _Num_tab_7
  91  00A2  1F01        	clr sbp
  91  00A3  1381        	adcm a,sbp
  91  00A4  2000     E  	call _Crom2Prom
  91  00A5  0080     E  	mov _Write_DATA_2[0],a
  91  00A6  0FCC        	mov a,204
  91  00A7  2800     R  	jmp _L33
  91  00A8              _L13:
  97  00A8              #line 97 "e:\ht66f018_f12\main\menu.c"
  97  00A8  1F00     E  	clr _builtin_holtek_udivmodqi4_2[3]
  97  00A9  0700     R  	mov a,_set_val_2[4]
  97  00AA  0080     E  	mov _builtin_holtek_udivmodqi4_2[0],a
  97  00AB  0F0A        	mov a,10
  97  00AC  0080     E  	mov _builtin_holtek_udivmodqi4_2[1],a
  97  00AD  2000     E  	call _builtin_holtek_udivmodqi4
  97  00AE  0700     E  	mov a,_builtin_holtek_udivmodqi4_2[0]
  97  00AF  0080     E  	mov ra,a
  97  00B0  0F00     R  	mov a,low offset _Num_tab_7
  97  00B1  0300     E  	add a,ra
  97  00B2  0083        	mov mp,a
文件：menu.c       编译器版本 HGASM 0202 页次6

  97  00B3  0F00     R  	mov a,high offset _Num_tab_7
  97  00B4  1F01        	clr sbp
  97  00B5  1381        	adcm a,sbp
  97  00B6  2000     E  	call _Crom2Prom
  97  00B7  0080     E  	mov _Write_DATA_2[0],a
  97  00B8  0FC8        	mov a,200
  97  00B9  2000     E  	call _Write_DATA
  98  00BA              #line 98 "e:\ht66f018_f12\main\menu.c"
  98  00BA  1F00     E  	clr _builtin_holtek_udivmodqi4_2[3]
  98  00BB  0700     R  	mov a,_set_val_2[4]
  98  00BC  0080     E  	mov _builtin_holtek_udivmodqi4_2[0],a
  98  00BD  0F0A        	mov a,10
  98  00BE  0080     E  	mov _builtin_holtek_udivmodqi4_2[1],a
  98  00BF  2000     E  	call _builtin_holtek_udivmodqi4
  98  00C0  0700     E  	mov a,_builtin_holtek_udivmodqi4_2[2]
  98  00C1  0080     E  	mov ra,a
  98  00C2  0F00     R  	mov a,low offset _Num_tab_7
  98  00C3  0300     E  	add a,ra
  98  00C4  0083        	mov mp,a
  98  00C5  0F00     R  	mov a,high offset _Num_tab_7
  98  00C6  1F01        	clr sbp
  98  00C7  1381        	adcm a,sbp
  98  00C8  2000     E  	call _Crom2Prom
  98  00C9  0080     E  	mov _Write_DATA_2[0],a
  98  00CA  0FCA        	mov a,202
  98  00CB  2800     R  	jmp _L33
  98  00CC              _L14:
 104  00CC              #line 104 "e:\ht66f018_f12\main\menu.c"
 104  00CC  1F00     E  	clr _builtin_holtek_udivmodqi4_2[3]
 104  00CD  0700     R  	mov a,_set_val_2[4]
 104  00CE  0080     E  	mov _builtin_holtek_udivmodqi4_2[0],a
 104  00CF  0F0A        	mov a,10
 104  00D0  0080     E  	mov _builtin_holtek_udivmodqi4_2[1],a
 104  00D1  2000     E  	call _builtin_holtek_udivmodqi4
 104  00D2  0700     E  	mov a,_builtin_holtek_udivmodqi4_2[0]
 104  00D3  0080     E  	mov ra,a
 104  00D4  0F00     R  	mov a,low offset _Num_tab_7
 104  00D5  0300     E  	add a,ra
 104  00D6  0083        	mov mp,a
 104  00D7  0F00     R  	mov a,high offset _Num_tab_7
 104  00D8  1F01        	clr sbp
 104  00D9  1381        	adcm a,sbp
 104  00DA  2000     E  	call _Crom2Prom
 104  00DB  0080     E  	mov _Write_DATA_2[0],a
 104  00DC  0FC0        	mov a,192
 104  00DD  2000     E  	call _Write_DATA
 105  00DE              #line 105 "e:\ht66f018_f12\main\menu.c"
 105  00DE  1F00     E  	clr _builtin_holtek_udivmodqi4_2[3]
 105  00DF  0700     R  	mov a,_set_val_2[4]
 105  00E0  0080     E  	mov _builtin_holtek_udivmodqi4_2[0],a
 105  00E1  0F0A        	mov a,10
 105  00E2  0080     E  	mov _builtin_holtek_udivmodqi4_2[1],a
 105  00E3  2000     E  	call _builtin_holtek_udivmodqi4
 105  00E4  0700     E  	mov a,_builtin_holtek_udivmodqi4_2[2]
 105  00E5  0080     E  	mov ra,a
 105  00E6  0F00     R  	mov a,low offset _Num_tab_7
 105  00E7  0300     E  	add a,ra
 105  00E8  0083        	mov mp,a
 105  00E9  0F00     R  	mov a,high offset _Num_tab_7
 105  00EA  1F01        	clr sbp
文件：menu.c       编译器版本 HGASM 0202 页次7

 105  00EB  1381        	adcm a,sbp
 105  00EC  2000     E  	call _Crom2Prom
 105  00ED  0080     E  	mov _Write_DATA_2[0],a
 105  00EE  0FC2        	mov a,194
 105  00EF              _L33:
 112  00EF              #line 112 "e:\ht66f018_f12\main\menu.c"
 112  00EF  2000     E  	call _Write_DATA
 114  00F0              #line 114 "e:\ht66f018_f12\main\menu.c"
 114  00F0  2800     R  	jmp _L11
 114  00F1              _L10:
 121  00F1              #line 121 "e:\ht66f018_f12\main\menu.c"
 121  00F1  1080     R  	sz _set_val_2[5]
 121  00F2  2800     R  	jmp _L11
 121  00F3              _L9:
 123  00F3              #line 123 "e:\ht66f018_f12\main\menu.c"
 123  00F3  0700     R  	mov a,_set_val_2[2]
 123  00F4  0A01        	sub a,1
 123  00F5  3D0A        	sz z
 123  00F6  2800     R  	jmp _L16
 123  00F7  0A01        	sub a,(2)-(1)
 123  00F8  3D0A        	sz z
 123  00F9  2800     R  	jmp _L17
 123  00FA  0700     R  	mov a,_set_val_2[2]
 123  00FB  0A03        	sub a,3
 123  00FC  3D0A        	sz z
 123  00FD  2800     R  	jmp _L18
 123  00FE  0700     R  	mov a,_set_val_2[2]
 123  00FF  0A04        	sub a,4
 123  0100  390A        	snz z
 123  0101  2800     R  	jmp _L32
 147  0102              #line 147 "e:\ht66f018_f12\main\menu.c"
 147  0102  1F00     E  	clr _Write_DATA_2[0]
 147  0103  0FC4        	mov a,196
 147  0104  2000     E  	call _Write_DATA
 148  0105              #line 148 "e:\ht66f018_f12\main\menu.c"
 148  0105  1F00     E  	clr _Write_DATA_2[0]
 148  0106  0FC6        	mov a,198
 148  0107  2800     R  	jmp _L36
 148  0108              _L16:
 127  0108              #line 127 "e:\ht66f018_f12\main\menu.c"
 127  0108  1F00     E  	clr _Write_DATA_2[0]
 127  0109  0FCC        	mov a,204
 127  010A  2800     R  	jmp _L36
 127  010B              _L17:
 133  010B              #line 133 "e:\ht66f018_f12\main\menu.c"
 133  010B  1F00     E  	clr _Write_DATA_2[0]
 133  010C  0FC8        	mov a,200
 133  010D  2000     E  	call _Write_DATA
 134  010E              #line 134 "e:\ht66f018_f12\main\menu.c"
 134  010E  1F00     E  	clr _Write_DATA_2[0]
 134  010F  0FCA        	mov a,202
 134  0110  2800     R  	jmp _L36
 134  0111              _L18:
 140  0111              #line 140 "e:\ht66f018_f12\main\menu.c"
 140  0111  1F00     E  	clr _Write_DATA_2[0]
 140  0112  0FC0        	mov a,192
 140  0113  2000     E  	call _Write_DATA
 141  0114              #line 141 "e:\ht66f018_f12\main\menu.c"
 141  0114  1F00     E  	clr _Write_DATA_2[0]
 141  0115  0FC2        	mov a,194
文件：menu.c       编译器版本 HGASM 0202 页次8

 141  0116              _L36:
 148  0116              #line 148 "e:\ht66f018_f12\main\menu.c"
 148  0116  2000     E  	call _Write_DATA
 148  0117              _L32:
 123  0117              #line 123 "e:\ht66f018_f12\main\menu.c"
 123  0117  1F00     R  	clr _set_val_2[5]
 123  0118              _L11:
 157  0118              #line 157 "e:\ht66f018_f12\main\menu.c"
 157  0118  0F64        	mov a,100
 157  0119  0080     E  	mov _use_delay_us_2[0],a
 157  011A  1F00     E  	clr _use_delay_us_2[1]
 157  011B  2000     E  	call _use_delay_us
 158  011C              #line 158 "e:\ht66f018_f12\main\menu.c"
 158  011C  0FFF        	mov a,255
 158  011D  0380     R  	addm a,_set_val_2[6]
 158  011E  0FFF        	mov a,255
 158  011F  1380     R  	adcm a,_set_val_2[7]
  25  0120              #line 25 "e:\ht66f018_f12\main\menu.c"
  25  0120  0700     R  	mov a,_set_val_2[6]
  25  0121  0500     R  	or a,_set_val_2[7]
  25  0122  390A        	snz z
  25  0123  2800     R  	jmp _L20
  25  0124              _L8:
 163  0124              #line 163 "e:\ht66f018_f12\main\menu.c"
 163  0124  0700     R  	mov a,_set_val_2[2]
 163  0125  0A01        	sub a,1
 163  0126  3D0A        	sz z
 163  0127  2800     R  	jmp _L22
 163  0128  0A01        	sub a,(2)-(1)
 163  0129  3D0A        	sz z
 163  012A  2800     R  	jmp _L23
 163  012B  0700     R  	mov a,_set_val_2[2]
 163  012C  0A03        	sub a,3
 163  012D  3D0A        	sz z
 163  012E  2800     R  	jmp _L24
 163  012F  0700     R  	mov a,_set_val_2[2]
 163  0130  0A04        	sub a,4
 163  0131  390A        	snz z
 163  0132  2800     R  	jmp _L21
 187  0133              #line 187 "e:\ht66f018_f12\main\menu.c"
 187  0133  1F00     E  	clr _builtin_holtek_udivmodqi4_2[3]
 187  0134  0700     R  	mov a,_set_val_2[4]
 187  0135  0080     E  	mov _builtin_holtek_udivmodqi4_2[0],a
 187  0136  0F0A        	mov a,10
 187  0137  0080     E  	mov _builtin_holtek_udivmodqi4_2[1],a
 187  0138  2000     E  	call _builtin_holtek_udivmodqi4
 187  0139  0700     E  	mov a,_builtin_holtek_udivmodqi4_2[0]
 187  013A  0080     E  	mov ra,a
 187  013B  0F00     R  	mov a,low offset _Num_tab_7
 187  013C  0300     E  	add a,ra
 187  013D  0083        	mov mp,a
 187  013E  0F00     R  	mov a,high offset _Num_tab_7
 187  013F  1F01        	clr sbp
 187  0140  1381        	adcm a,sbp
 187  0141  2000     E  	call _Crom2Prom
 187  0142  0080     E  	mov _Write_DATA_2[0],a
 187  0143  0FC4        	mov a,196
 187  0144  2000     E  	call _Write_DATA
 188  0145              #line 188 "e:\ht66f018_f12\main\menu.c"
 188  0145  1F00     E  	clr _builtin_holtek_udivmodqi4_2[3]
文件：menu.c       编译器版本 HGASM 0202 页次9

 188  0146  0700     R  	mov a,_set_val_2[4]
 188  0147  0080     E  	mov _builtin_holtek_udivmodqi4_2[0],a
 188  0148  0F0A        	mov a,10
 188  0149  0080     E  	mov _builtin_holtek_udivmodqi4_2[1],a
 188  014A  2000     E  	call _builtin_holtek_udivmodqi4
 188  014B  0700     E  	mov a,_builtin_holtek_udivmodqi4_2[2]
 188  014C  0080     E  	mov ra,a
 188  014D  0F00     R  	mov a,low offset _Num_tab_7
 188  014E  0300     E  	add a,ra
 188  014F  0083        	mov mp,a
 188  0150  0F00     R  	mov a,high offset _Num_tab_7
 188  0151  1F01        	clr sbp
 188  0152  1381        	adcm a,sbp
 188  0153  2000     E  	call _Crom2Prom
 188  0154  0080     E  	mov _Write_DATA_2[0],a
 188  0155  0FC6        	mov a,198
 188  0156  2800     R  	jmp _L35
 188  0157              _L22:
 167  0157              #line 167 "e:\ht66f018_f12\main\menu.c"
 167  0157  0F00     R  	mov a,low offset _Num_tab_7
 167  0158  0300     R  	add a,_set_val_2[4]
 167  0159  0083        	mov mp,a
 167  015A  0F00     R  	mov a,high offset _Num_tab_7
 167  015B  1F01        	clr sbp
 167  015C  1381        	adcm a,sbp
 167  015D  2000     E  	call _Crom2Prom
 167  015E  0080     E  	mov _Write_DATA_2[0],a
 167  015F  0FCC        	mov a,204
 167  0160  2800     R  	jmp _L35
 167  0161              _L23:
 173  0161              #line 173 "e:\ht66f018_f12\main\menu.c"
 173  0161  1F00     E  	clr _builtin_holtek_udivmodqi4_2[3]
 173  0162  0700     R  	mov a,_set_val_2[4]
 173  0163  0080     E  	mov _builtin_holtek_udivmodqi4_2[0],a
 173  0164  0F0A        	mov a,10
 173  0165  0080     E  	mov _builtin_holtek_udivmodqi4_2[1],a
 173  0166  2000     E  	call _builtin_holtek_udivmodqi4
 173  0167  0700     E  	mov a,_builtin_holtek_udivmodqi4_2[0]
 173  0168  0080     E  	mov ra,a
 173  0169  0F00     R  	mov a,low offset _Num_tab_7
 173  016A  0300     E  	add a,ra
 173  016B  0083        	mov mp,a
 173  016C  0F00     R  	mov a,high offset _Num_tab_7
 173  016D  1F01        	clr sbp
 173  016E  1381        	adcm a,sbp
 173  016F  2000     E  	call _Crom2Prom
 173  0170  0080     E  	mov _Write_DATA_2[0],a
 173  0171  0FC8        	mov a,200
 173  0172  2000     E  	call _Write_DATA
 174  0173              #line 174 "e:\ht66f018_f12\main\menu.c"
 174  0173  1F00     E  	clr _builtin_holtek_udivmodqi4_2[3]
 174  0174  0700     R  	mov a,_set_val_2[4]
 174  0175  0080     E  	mov _builtin_holtek_udivmodqi4_2[0],a
 174  0176  0F0A        	mov a,10
 174  0177  0080     E  	mov _builtin_holtek_udivmodqi4_2[1],a
 174  0178  2000     E  	call _builtin_holtek_udivmodqi4
 174  0179  0700     E  	mov a,_builtin_holtek_udivmodqi4_2[2]
 174  017A  0080     E  	mov ra,a
 174  017B  0F00     R  	mov a,low offset _Num_tab_7
 174  017C  0300     E  	add a,ra
文件：menu.c       编译器版本 HGASM 0202 页次10

 174  017D  0083        	mov mp,a
 174  017E  0F00     R  	mov a,high offset _Num_tab_7
 174  017F  1F01        	clr sbp
 174  0180  1381        	adcm a,sbp
 174  0181  2000     E  	call _Crom2Prom
 174  0182  0080     E  	mov _Write_DATA_2[0],a
 174  0183  0FCA        	mov a,202
 174  0184  2800     R  	jmp _L35
 174  0185              _L24:
 180  0185              #line 180 "e:\ht66f018_f12\main\menu.c"
 180  0185  1F00     E  	clr _builtin_holtek_udivmodqi4_2[3]
 180  0186  0700     R  	mov a,_set_val_2[4]
 180  0187  0080     E  	mov _builtin_holtek_udivmodqi4_2[0],a
 180  0188  0F0A        	mov a,10
 180  0189  0080     E  	mov _builtin_holtek_udivmodqi4_2[1],a
 180  018A  2000     E  	call _builtin_holtek_udivmodqi4
 180  018B  0700     E  	mov a,_builtin_holtek_udivmodqi4_2[0]
 180  018C  0080     E  	mov ra,a
 180  018D  0F00     R  	mov a,low offset _Num_tab_7
 180  018E  0300     E  	add a,ra
 180  018F  0083        	mov mp,a
 180  0190  0F00     R  	mov a,high offset _Num_tab_7
 180  0191  1F01        	clr sbp
 180  0192  1381        	adcm a,sbp
 180  0193  2000     E  	call _Crom2Prom
 180  0194  0080     E  	mov _Write_DATA_2[0],a
 180  0195  0FC0        	mov a,192
 180  0196  2000     E  	call _Write_DATA
 181  0197              #line 181 "e:\ht66f018_f12\main\menu.c"
 181  0197  1F00     E  	clr _builtin_holtek_udivmodqi4_2[3]
 181  0198  0700     R  	mov a,_set_val_2[4]
 181  0199  0080     E  	mov _builtin_holtek_udivmodqi4_2[0],a
 181  019A  0F0A        	mov a,10
 181  019B  0080     E  	mov _builtin_holtek_udivmodqi4_2[1],a
 181  019C  2000     E  	call _builtin_holtek_udivmodqi4
 181  019D  0700     E  	mov a,_builtin_holtek_udivmodqi4_2[2]
 181  019E  0080     E  	mov ra,a
 181  019F  0F00     R  	mov a,low offset _Num_tab_7
 181  01A0  0300     E  	add a,ra
 181  01A1  0083        	mov mp,a
 181  01A2  0F00     R  	mov a,high offset _Num_tab_7
 181  01A3  1F01        	clr sbp
 181  01A4  1381        	adcm a,sbp
 181  01A5  2000     E  	call _Crom2Prom
 181  01A6  0080     E  	mov _Write_DATA_2[0],a
 181  01A7  0FC2        	mov a,194
 181  01A8              _L35:
 188  01A8              #line 188 "e:\ht66f018_f12\main\menu.c"
 188  01A8  2000     E  	call _Write_DATA
 188  01A9              _L21:
 197  01A9              #line 197 "e:\ht66f018_f12\main\menu.c"
 197  01A9  0700     R  	mov a,_set_val_2[4]
 197  01AA  0003        	ret
 197  01AB              _set_val endp
 197  01AB              #line 197 "e:\ht66f018_f12\main\menu.c"
 197  01AB              #pragma debug scope 1 1
 197  01AB              public _set_time
 197  01AB              #pragma debug scope 3 1
 202  01AB              #line 202 "e:\ht66f018_f12\main\menu.c"
 202  0000              _set_time .section 'code'
文件：menu.c       编译器版本 HGASM 0202 页次11

 202  0000              _set_time proc
 202  0000  0005[           local _set_time_2 db 5 dup(?)	; 0,5
            00
            ]
 202  0005              #pragma debug variable 7 3 _set_time_2+3 "set_time_value_flag"
 202  0005              #pragma debug struct_end
 202  0005              #pragma debug struct_end
 202  0005              #pragma debug variable 42 3 _set_time_2+0 "time_set"
 206  0005              #line 206 "e:\ht66f018_f12\main\menu.c"
 206  0000  0F01        	mov a,1
 206  0001  0080     R  	mov _set_time_flag[0],a
 208  0002              #line 208 "e:\ht66f018_f12\main\menu.c"
 208  0002  1F00     E  	clr _builtin_holtek_udivmodqi4_2[3]
 208  0003  0700     E  	mov a,_rtc_date[0]
 208  0004  0080     E  	mov _builtin_holtek_udivmodqi4_2[0],a
 208  0005  0F0A        	mov a,10
 208  0006  0080     E  	mov _builtin_holtek_udivmodqi4_2[1],a
 208  0007  2000     E  	call _builtin_holtek_udivmodqi4
 208  0008  0700     E  	mov a,_builtin_holtek_udivmodqi4_2[0]
 208  0009  0080     E  	mov ra,a
 208  000A  0F00     R  	mov a,low offset _Num_tab_7
 208  000B  0300     E  	add a,ra
 208  000C  0083        	mov mp,a
 208  000D  0F00     R  	mov a,high offset _Num_tab_7
 208  000E  1F01        	clr sbp
 208  000F  1381        	adcm a,sbp
 208  0010  2000     E  	call _Crom2Prom
 208  0011  0080     E  	mov _Write_DATA_2[0],a
 208  0012  0FC0        	mov a,192
 208  0013  2000     E  	call _Write_DATA
 209  0014              #line 209 "e:\ht66f018_f12\main\menu.c"
 209  0014  1F00     E  	clr _builtin_holtek_udivmodqi4_2[3]
 209  0015  0700     E  	mov a,_rtc_date[0]
 209  0016  0080     E  	mov _builtin_holtek_udivmodqi4_2[0],a
 209  0017  0F0A        	mov a,10
 209  0018  0080     E  	mov _builtin_holtek_udivmodqi4_2[1],a
 209  0019  2000     E  	call _builtin_holtek_udivmodqi4
 209  001A  0700     E  	mov a,_builtin_holtek_udivmodqi4_2[2]
 209  001B  0080     E  	mov ra,a
 209  001C  0F00     R  	mov a,low offset _Num_tab_7
 209  001D  0300     E  	add a,ra
 209  001E  0083        	mov mp,a
 209  001F  0F00     R  	mov a,high offset _Num_tab_7
 209  0020  1F01        	clr sbp
 209  0021  1381        	adcm a,sbp
 209  0022  2000     E  	call _Crom2Prom
 209  0023  0080     E  	mov _Write_DATA_2[0],a
 209  0024  0FC2        	mov a,194
 209  0025  2000     E  	call _Write_DATA
 210  0026              #line 210 "e:\ht66f018_f12\main\menu.c"
 210  0026  1F00     E  	clr _builtin_holtek_udivmodqi4_2[3]
 210  0027  0700     E  	mov a,_rtc_date[1]
 210  0028  0080     E  	mov _builtin_holtek_udivmodqi4_2[0],a
 210  0029  0F0A        	mov a,10
 210  002A  0080     E  	mov _builtin_holtek_udivmodqi4_2[1],a
 210  002B  2000     E  	call _builtin_holtek_udivmodqi4
 210  002C  0700     E  	mov a,_builtin_holtek_udivmodqi4_2[0]
 210  002D  0080     E  	mov ra,a
 210  002E  0F00     R  	mov a,low offset _Num_tab_7
 210  002F  0300     E  	add a,ra
文件：menu.c       编译器版本 HGASM 0202 页次12

 210  0030  0083        	mov mp,a
 210  0031  0F00     R  	mov a,high offset _Num_tab_7
 210  0032  1F01        	clr sbp
 210  0033  1381        	adcm a,sbp
 210  0034  2000     E  	call _Crom2Prom
 210  0035  0080     E  	mov _Write_DATA_2[0],a
 210  0036  0FC4        	mov a,196
 210  0037  2000     E  	call _Write_DATA
 211  0038              #line 211 "e:\ht66f018_f12\main\menu.c"
 211  0038  1F00     E  	clr _builtin_holtek_udivmodqi4_2[3]
 211  0039  0700     E  	mov a,_rtc_date[1]
 211  003A  0080     E  	mov _builtin_holtek_udivmodqi4_2[0],a
 211  003B  0F0A        	mov a,10
 211  003C  0080     E  	mov _builtin_holtek_udivmodqi4_2[1],a
 211  003D  2000     E  	call _builtin_holtek_udivmodqi4
 211  003E  0700     E  	mov a,_builtin_holtek_udivmodqi4_2[2]
 211  003F  0080     E  	mov ra,a
 211  0040  0F00     R  	mov a,low offset _Num_tab_7
 211  0041  0300     E  	add a,ra
 211  0042  0083        	mov mp,a
 211  0043  0F00     R  	mov a,high offset _Num_tab_7
 211  0044  1F01        	clr sbp
 211  0045  1381        	adcm a,sbp
 211  0046  2000     E  	call _Crom2Prom
 211  0047  0080     E  	mov _Write_DATA_2[0],a
 211  0048  0FC6        	mov a,198
 211  0049  2000     E  	call _Write_DATA
 203  004A              #line 203 "e:\ht66f018_f12\main\menu.c"
 203  004A  0F01        	mov a,1
 203  004B  0080     R  	mov _set_time_2[3],a
 203  004C              _L47:
 215  004C              #line 215 "e:\ht66f018_f12\main\menu.c"
 215  004C              ;# 215 "e:\ht66f018_f12\main\menu.c" 1
 215  004C  0001        	clr wdt
 217  004D              #line 217 "e:\ht66f018_f12\main\menu.c"
 217  004D  1700     R  	sdza _set_time_2[3]
 217  004E  2800     R  	jmp _LI3
 217  004F  2800     R  	jmp _L41
 217  0050              _LI3:
 217  0050  0700     R  	mov a,_set_time_2[3]
 217  0051  0A02        	sub a,2
 217  0052  390A        	snz z
 217  0053  2800     R  	jmp _L49
 229  0054              #line 229 "e:\ht66f018_f12\main\menu.c"
 229  0054  0700     E  	mov a,_rtc_date[1]
 229  0055  0080     E  	mov ra,a
 229  0056  0F04        	mov a,4
 229  0057  0080     R  	mov _set_val_2[2],a
 229  0058  0F3B        	mov a,59
 229  0059  0080     R  	mov _set_val_2[1],a
 229  005A  1F00     R  	clr _set_val_2[0]
 229  005B  0700     E  	mov a,ra
 229  005C  2000     R  	call _set_val
 229  005D  0080     E  	mov ra,a
 229  005E  0700     E  	mov a,ra
 229  005F  0080     R  	mov _set_time_2[1],a
 231  0060              #line 231 "e:\ht66f018_f12\main\menu.c"
 231  0060  0F16        	mov a,22
 231  0061  2800     R  	jmp _L50
 231  0062              _L41:
文件：menu.c       编译器版本 HGASM 0202 页次13

 221  0062              #line 221 "e:\ht66f018_f12\main\menu.c"
 221  0062  0700     E  	mov a,_rtc_date[0]
 221  0063  0080     E  	mov ra,a
 221  0064  0F03        	mov a,3
 221  0065  0080     R  	mov _set_val_2[2],a
 221  0066  0F17        	mov a,23
 221  0067  0080     R  	mov _set_val_2[1],a
 221  0068  1F00     R  	clr _set_val_2[0]
 221  0069  0700     E  	mov a,ra
 221  006A  2000     R  	call _set_val
 221  006B  0080     E  	mov ra,a
 221  006C  0700     E  	mov a,ra
 221  006D  0080     R  	mov _set_time_2[0],a
 223  006E              #line 223 "e:\ht66f018_f12\main\menu.c"
 223  006E  0F15        	mov a,21
 223  006F              _L50:
 231  006F              #line 231 "e:\ht66f018_f12\main\menu.c"
 231  006F  2000     E  	call _UART_SoftWareSendByte
 233  0070              #line 233 "e:\ht66f018_f12\main\menu.c"
 233  0070  2800     R  	jmp _L40
 233  0071              _L49:
 236  0071              #line 236 "e:\ht66f018_f12\main\menu.c"
 236  0071  0F03        	mov a,3
 236  0072  0080     R  	mov _set_time_2[3],a
 236  0073              _L40:
 239  0073              #line 239 "e:\ht66f018_f12\main\menu.c"
 239  0073  0700     R  	mov a,_set_val_flag[0]
 239  0074  0080     R  	mov _set_time_2[4],a
 239  0075  1700     R  	sdza _set_time_2[4]
 239  0076  2800     R  	jmp _L43
 242  0077              #line 242 "e:\ht66f018_f12\main\menu.c"
 242  0077  1580     R  	dec _set_time_2[3]
 243  0078              #line 243 "e:\ht66f018_f12\main\menu.c"
 243  0078  1F00     R  	clr _set_val_flag[0]
 243  0079  2800     R  	jmp _L47
 243  007A              _L43:
 245  007A              #line 245 "e:\ht66f018_f12\main\menu.c"
 245  007A  0F01        	mov a,1
 245  007B  0200     R  	sub a,_set_time_2[4]
 245  007C  3C0A        	sz c
 245  007D  2800     R  	jmp _L45
 247  007E              #line 247 "e:\ht66f018_f12\main\menu.c"
 247  007E  1480     R  	inc _set_time_2[3]
 248  007F              #line 248 "e:\ht66f018_f12\main\menu.c"
 248  007F  1F00     R  	clr _set_val_flag[0]
 248  0080              _L45:
 251  0080              #line 251 "e:\ht66f018_f12\main\menu.c"
 251  0080  0F02        	mov a,2
 251  0081  0200     R  	sub a,_set_time_2[3]
 251  0082  1185        	swap acc
 251  0083  040A        	xor a,status
 251  0084  3985        	snz acc.3
 251  0085  2800     R  	jmp _L47
 253  0086              #line 253 "e:\ht66f018_f12\main\menu.c"
 253  0086  1F00     E  	clr _rtc_date[2]
 254  0087              #line 254 "e:\ht66f018_f12\main\menu.c"
 254  0087  0700     R  	mov a,_set_time_2[0]
 254  0088  0080     E  	mov _rtc_date[0],a
 255  0089              #line 255 "e:\ht66f018_f12\main\menu.c"
 255  0089  0700     R  	mov a,_set_time_2[1]
文件：menu.c       编译器版本 HGASM 0202 页次14

 255  008A  0080     E  	mov _rtc_date[1],a
 256  008B              #line 256 "e:\ht66f018_f12\main\menu.c"
 256  008B  2000     E  	call _time_save
 258  008C              #line 258 "e:\ht66f018_f12\main\menu.c"
 258  008C  0F2A        	mov a,42
 258  008D  2000     E  	call _UART_SoftWareSendByte
 260  008E              #line 260 "e:\ht66f018_f12\main\menu.c"
 260  008E  1F00     R  	clr _set_time_flag[0]
 267  008F              #line 267 "e:\ht66f018_f12\main\menu.c"
 267  008F  0F00        	mov a,0
 267  0090  0003        	ret
 267  0091              _set_time endp
 267  0091              #line 267 "e:\ht66f018_f12\main\menu.c"
 267  0091              #pragma debug scope 1 1
 267  0091              public _get_meal
 267  0091              #pragma debug scope 4 1
 353  0091              #line 353 "e:\ht66f018_f12\main\menu.c"
 353  0000              _get_meal .section 'code'
 353  0000              _get_meal proc
 353  0000  000B[           local _get_meal_2 db 11 dup(?)	; 0,11
            00
            ]
 353  0000  0080     E  	mov rb,a
 353  0001  0080     E  	mov ra,a
 353  0002  0080     R  	mov _get_meal_2[0],a
 353  0003              #pragma debug variable 8 4 _get_meal_2+0 "num"
 354  0003              #line 354 "e:\ht66f018_f12\main\menu.c"
 354  0003  0700     E  	mov a,rb
 354  0004  0080     R  	mov _get_meal_2[9],a
 354  0005  1F00     R  	clr _get_meal_2[10]
 354  0006  0FFF        	mov a,255
 354  0007  0300     R  	add a,_get_meal_2[9]
 354  0008  0080     R  	mov _get_meal_2[3],a
 354  0009  0FFF        	mov a,255
 354  000A  1300     R  	adc a,_get_meal_2[10]
 354  000B  0080     R  	mov _get_meal_2[4],a
 354  000C  0700     E  	mov a,rb
 354  000D  0380     E  	addm a,ra
 354  000E  0700     E  	mov a,ra
 354  000F  0300     E  	add a,ra
 354  0010  0080     R  	mov _get_meal_2[1],a
 354  0011  1400     R  	inca _get_meal_2[1]
 354  0012  0080     E  	mov ra,a
 354  0013  0700     E  	mov a,ra
 354  0014  2000     E  	call _EEPROM_Read_Byte
 354  0015  0080     E  	mov ra,a
 354  0016  340A        	clr c
 354  0017  1A80     R  	rlc _get_meal_2[3]
 354  0018  1A80     R  	rlc _get_meal_2[4]
 354  0019  340A        	clr c
 354  001A  1A80     R  	rlc _get_meal_2[3]
 354  001B  1A80     R  	rlc _get_meal_2[4]
 354  001C  0F00     E  	mov a,low offset _feed_plans
 354  001D  0300     R  	add a,_get_meal_2[3]
 354  001E  0080     R  	mov _get_meal_2[5],a
 354  001F  0F00     E  	mov a,high offset _feed_plans
 354  0020  1300     R  	adc a,_get_meal_2[4]
 354  0021  0080     R  	mov _get_meal_2[6],a
 354  0022  0700     R  	mov a,_get_meal_2[5]
 354  0023  0083        	mov mp,a
文件：menu.c       编译器版本 HGASM 0202 页次15

 354  0024  0700     R  	mov a,_get_meal_2[6]
 354  0025  0081        	mov sbp,a
 354  0026  0701        	mov a,sbp
 354  0027  0084        	mov bp,a
 354  0028  0700     E  	mov a,ra
 354  0029  0082        	mov ir,a
 355  002A              #line 355 "e:\ht66f018_f12\main\menu.c"
 355  002A  0700     R  	mov a,_get_meal_2[1]
 355  002B  0B02        	add a,2
 355  002C  0080     E  	mov ra,a
 355  002D  0700     E  	mov a,ra
 355  002E  2000     E  	call _EEPROM_Read_Byte
 355  002F  0080     E  	mov ra,a
 355  0030  0F00     E  	mov a,low (offset _feed_plans+1)
 355  0031  0300     R  	add a,_get_meal_2[3]
 355  0032  0080     R  	mov _get_meal_2[7],a
 355  0033  0F00     E  	mov a,high (offset _feed_plans+1)
 355  0034  1300     R  	adc a,_get_meal_2[4]
 355  0035  0080     R  	mov _get_meal_2[8],a
 355  0036  0700     R  	mov a,_get_meal_2[7]
 355  0037  0083        	mov mp,a
 355  0038  0700     R  	mov a,_get_meal_2[8]
 355  0039  0081        	mov sbp,a
 355  003A  0701        	mov a,sbp
 355  003B  0084        	mov bp,a
 355  003C  0700     E  	mov a,ra
 355  003D  0082        	mov ir,a
 356  003E              #line 356 "e:\ht66f018_f12\main\menu.c"
 356  003E  0700     R  	mov a,_get_meal_2[1]
 356  003F  0B03        	add a,3
 356  0040  0080     E  	mov ra,a
 356  0041  0700     E  	mov a,ra
 356  0042  2000     E  	call _EEPROM_Read_Byte
 356  0043  0080     E  	mov ra,a
 356  0044  0F00     E  	mov a,low (offset _feed_plans+2)
 356  0045  0300     R  	add a,_get_meal_2[3]
 356  0046  0080     R  	mov _get_meal_2[1],a
 356  0047  0F00     E  	mov a,high (offset _feed_plans+2)
 356  0048  1300     R  	adc a,_get_meal_2[4]
 356  0049  0080     R  	mov _get_meal_2[2],a
 356  004A  0700     R  	mov a,_get_meal_2[1]
 356  004B  0083        	mov mp,a
 356  004C  0700     R  	mov a,_get_meal_2[2]
 356  004D  0081        	mov sbp,a
 356  004E  0701        	mov a,sbp
 356  004F  0084        	mov bp,a
 356  0050  0700     E  	mov a,ra
 356  0051  0082        	mov ir,a
 358  0052              #line 358 "e:\ht66f018_f12\main\menu.c"
 358  0052  0F00     R  	mov a,low offset _Num_tab_7
 358  0053  0300     R  	add a,_get_meal_2[9]
 358  0054  0083        	mov mp,a
 358  0055  0F00     R  	mov a,high offset _Num_tab_7
 358  0056  1300     R  	adc a,_get_meal_2[10]
 358  0057  0081        	mov sbp,a
 358  0058  2000     E  	call _Crom2Prom
 358  0059  0080     E  	mov _Write_DATA_2[0],a
 358  005A  0FCC        	mov a,204
 358  005B  2000     E  	call _Write_DATA
 359  005C              #line 359 "e:\ht66f018_f12\main\menu.c"
文件：menu.c       编译器版本 HGASM 0202 页次16

 359  005C  0700     R  	mov a,_get_meal_2[5]
 359  005D  0083        	mov mp,a
 359  005E  0700     R  	mov a,_get_meal_2[6]
 359  005F  0081        	mov sbp,a
 359  0060  2000     E  	call _Crom2Prom
 359  0061  0080     E  	mov ra,a
 359  0062  1F00     E  	clr _builtin_holtek_udivmodqi4_2[3]
 359  0063  0700     E  	mov a,ra
 359  0064  0080     E  	mov _builtin_holtek_udivmodqi4_2[0],a
 359  0065  0F0A        	mov a,10
 359  0066  0080     E  	mov _builtin_holtek_udivmodqi4_2[1],a
 359  0067  2000     E  	call _builtin_holtek_udivmodqi4
 359  0068  0700     E  	mov a,_builtin_holtek_udivmodqi4_2[0]
 359  0069  0080     E  	mov ra,a
 359  006A  0F00     R  	mov a,low offset _Num_tab_7
 359  006B  0300     E  	add a,ra
 359  006C  0083        	mov mp,a
 359  006D  0F00     R  	mov a,high offset _Num_tab_7
 359  006E  1F01        	clr sbp
 359  006F  1381        	adcm a,sbp
 359  0070  2000     E  	call _Crom2Prom
 359  0071  0080     E  	mov _Write_DATA_2[0],a
 359  0072  0FC0        	mov a,192
 359  0073  2000     E  	call _Write_DATA
 360  0074              #line 360 "e:\ht66f018_f12\main\menu.c"
 360  0074  0700     R  	mov a,_get_meal_2[5]
 360  0075  0083        	mov mp,a
 360  0076  0700     R  	mov a,_get_meal_2[6]
 360  0077  0081        	mov sbp,a
 360  0078  2000     E  	call _Crom2Prom
 360  0079  0080     E  	mov ra,a
 360  007A  1F00     E  	clr _builtin_holtek_udivmodqi4_2[3]
 360  007B  0700     E  	mov a,ra
 360  007C  0080     E  	mov _builtin_holtek_udivmodqi4_2[0],a
 360  007D  0F0A        	mov a,10
 360  007E  0080     E  	mov _builtin_holtek_udivmodqi4_2[1],a
 360  007F  2000     E  	call _builtin_holtek_udivmodqi4
 360  0080  0700     E  	mov a,_builtin_holtek_udivmodqi4_2[2]
 360  0081  0080     E  	mov ra,a
 360  0082  0F00     R  	mov a,low offset _Num_tab_7
 360  0083  0300     E  	add a,ra
 360  0084  0083        	mov mp,a
 360  0085  0F00     R  	mov a,high offset _Num_tab_7
 360  0086  1F01        	clr sbp
 360  0087  1381        	adcm a,sbp
 360  0088  2000     E  	call _Crom2Prom
 360  0089  0080     E  	mov _Write_DATA_2[0],a
 360  008A  0FC2        	mov a,194
 360  008B  2000     E  	call _Write_DATA
 361  008C              #line 361 "e:\ht66f018_f12\main\menu.c"
 361  008C  0700     R  	mov a,_get_meal_2[7]
 361  008D  0083        	mov mp,a
 361  008E  0700     R  	mov a,_get_meal_2[8]
 361  008F  0081        	mov sbp,a
 361  0090  2000     E  	call _Crom2Prom
 361  0091  0080     E  	mov ra,a
 361  0092  1F00     E  	clr _builtin_holtek_udivmodqi4_2[3]
 361  0093  0700     E  	mov a,ra
 361  0094  0080     E  	mov _builtin_holtek_udivmodqi4_2[0],a
 361  0095  0F0A        	mov a,10
文件：menu.c       编译器版本 HGASM 0202 页次17

 361  0096  0080     E  	mov _builtin_holtek_udivmodqi4_2[1],a
 361  0097  2000     E  	call _builtin_holtek_udivmodqi4
 361  0098  0700     E  	mov a,_builtin_holtek_udivmodqi4_2[0]
 361  0099  0080     E  	mov ra,a
 361  009A  0F00     R  	mov a,low offset _Num_tab_7
 361  009B  0300     E  	add a,ra
 361  009C  0083        	mov mp,a
 361  009D  0F00     R  	mov a,high offset _Num_tab_7
 361  009E  1F01        	clr sbp
 361  009F  1381        	adcm a,sbp
 361  00A0  2000     E  	call _Crom2Prom
 361  00A1  0080     E  	mov _Write_DATA_2[0],a
 361  00A2  0FC4        	mov a,196
 361  00A3  2000     E  	call _Write_DATA
 362  00A4              #line 362 "e:\ht66f018_f12\main\menu.c"
 362  00A4  0700     R  	mov a,_get_meal_2[7]
 362  00A5  0083        	mov mp,a
 362  00A6  0700     R  	mov a,_get_meal_2[8]
 362  00A7  0081        	mov sbp,a
 362  00A8  2000     E  	call _Crom2Prom
 362  00A9  0080     E  	mov ra,a
 362  00AA  1F00     E  	clr _builtin_holtek_udivmodqi4_2[3]
 362  00AB  0700     E  	mov a,ra
 362  00AC  0080     E  	mov _builtin_holtek_udivmodqi4_2[0],a
 362  00AD  0F0A        	mov a,10
 362  00AE  0080     E  	mov _builtin_holtek_udivmodqi4_2[1],a
 362  00AF  2000     E  	call _builtin_holtek_udivmodqi4
 362  00B0  0700     E  	mov a,_builtin_holtek_udivmodqi4_2[2]
 362  00B1  0080     E  	mov ra,a
 362  00B2  0F00     R  	mov a,low offset _Num_tab_7
 362  00B3  0300     E  	add a,ra
 362  00B4  0083        	mov mp,a
 362  00B5  0F00     R  	mov a,high offset _Num_tab_7
 362  00B6  1F01        	clr sbp
 362  00B7  1381        	adcm a,sbp
 362  00B8  2000     E  	call _Crom2Prom
 362  00B9  0080     E  	mov _Write_DATA_2[0],a
 362  00BA  0FC6        	mov a,198
 362  00BB  2000     E  	call _Write_DATA
 363  00BC              #line 363 "e:\ht66f018_f12\main\menu.c"
 363  00BC  0700     R  	mov a,_get_meal_2[1]
 363  00BD  0083        	mov mp,a
 363  00BE  0700     R  	mov a,_get_meal_2[2]
 363  00BF  0081        	mov sbp,a
 363  00C0  2000     E  	call _Crom2Prom
 363  00C1  0080     E  	mov ra,a
 363  00C2  1F00     E  	clr _builtin_holtek_udivmodqi4_2[3]
 363  00C3  0700     E  	mov a,ra
 363  00C4  0080     E  	mov _builtin_holtek_udivmodqi4_2[0],a
 363  00C5  0F0A        	mov a,10
 363  00C6  0080     E  	mov _builtin_holtek_udivmodqi4_2[1],a
 363  00C7  2000     E  	call _builtin_holtek_udivmodqi4
 363  00C8  0700     E  	mov a,_builtin_holtek_udivmodqi4_2[0]
 363  00C9  0080     E  	mov ra,a
 363  00CA  0F00     R  	mov a,low offset _Num_tab_7
 363  00CB  0300     E  	add a,ra
 363  00CC  0083        	mov mp,a
 363  00CD  0F00     R  	mov a,high offset _Num_tab_7
 363  00CE  1F01        	clr sbp
 363  00CF  1381        	adcm a,sbp
文件：menu.c       编译器版本 HGASM 0202 页次18

 363  00D0  2000     E  	call _Crom2Prom
 363  00D1  0080     E  	mov _Write_DATA_2[0],a
 363  00D2  0FC8        	mov a,200
 363  00D3  2000     E  	call _Write_DATA
 364  00D4              #line 364 "e:\ht66f018_f12\main\menu.c"
 364  00D4  0700     R  	mov a,_get_meal_2[1]
 364  00D5  0083        	mov mp,a
 364  00D6  0700     R  	mov a,_get_meal_2[2]
 364  00D7  0081        	mov sbp,a
 364  00D8  2000     E  	call _Crom2Prom
 364  00D9  0080     E  	mov ra,a
 364  00DA  1F00     E  	clr _builtin_holtek_udivmodqi4_2[3]
 364  00DB  0700     E  	mov a,ra
 364  00DC  0080     E  	mov _builtin_holtek_udivmodqi4_2[0],a
 364  00DD  0F0A        	mov a,10
 364  00DE  0080     E  	mov _builtin_holtek_udivmodqi4_2[1],a
 364  00DF  2000     E  	call _builtin_holtek_udivmodqi4
 364  00E0  0700     E  	mov a,_builtin_holtek_udivmodqi4_2[2]
 364  00E1  0080     E  	mov ra,a
 364  00E2  0F00     R  	mov a,low offset _Num_tab_7
 364  00E3  0300     E  	add a,ra
 364  00E4  0083        	mov mp,a
 364  00E5  0F00     R  	mov a,high offset _Num_tab_7
 364  00E6  1F01        	clr sbp
 364  00E7  1381        	adcm a,sbp
 364  00E8  2000     E  	call _Crom2Prom
 364  00E9  0080     E  	mov _Write_DATA_2[0],a
 364  00EA  0FCA        	mov a,202
 364  00EB  2000     E  	call _Write_DATA
 364  00EC  0003        	ret
 364  00ED              _get_meal endp
 364  00ED              #line 364 "e:\ht66f018_f12\main\menu.c"
 364  00ED              #pragma debug scope 1 1
 364  00ED              public _set_meal
 364  00ED              #pragma debug scope 5 1
 271  00ED              #line 271 "e:\ht66f018_f12\main\menu.c"
 271  0000              _set_meal .section 'code'
 271  0000              _set_meal proc
 271  0000  0005[           local _set_meal_2 db 5 dup(?)	; 0,5
            00
            ]
 271  0005              #pragma debug variable 8 5 _set_meal_2+1 "num"
 271  0005              #pragma debug variable 7 5 _set_meal_2+0 "set_meal_value_flag"
 276  0005              #line 276 "e:\ht66f018_f12\main\menu.c"
 276  0000  0F01        	mov a,1
 276  0001  0080     R  	mov _set_meal_flag[0],a
 278  0002              #line 278 "e:\ht66f018_f12\main\menu.c"
 278  0002  0F01        	mov a,1
 278  0003  2000     R  	call _get_meal
 274  0004              #line 274 "e:\ht66f018_f12\main\menu.c"
 274  0004  0F01        	mov a,1
 274  0005  0080     R  	mov _set_meal_2[0],a
 273  0006              #line 273 "e:\ht66f018_f12\main\menu.c"
 273  0006  0F01        	mov a,1
 273  0007  0080     R  	mov _set_meal_2[1],a
 273  0008              _L62:
 281  0008              #line 281 "e:\ht66f018_f12\main\menu.c"
 281  0008  0700     R  	mov a,_set_meal_2[0]
 281  0009  0A01        	sub a,1
 281  000A  3D0A        	sz z
文件：menu.c       编译器版本 HGASM 0202 页次19

 281  000B  2800     R  	jmp _L54
 281  000C  0A01        	sub a,(2)-(1)
 281  000D  3D0A        	sz z
 281  000E  2800     R  	jmp _L55
 281  000F  0700     R  	mov a,_set_meal_2[0]
 281  0010  0A03        	sub a,3
 281  0011  3D0A        	sz z
 281  0012  2800     R  	jmp _L56
 281  0013  0700     R  	mov a,_set_meal_2[0]
 281  0014  0A04        	sub a,4
 281  0015  390A        	snz z
 281  0016  2800     R  	jmp _L64
 313  0017              #line 313 "e:\ht66f018_f12\main\menu.c"
 313  0017  0FFF        	mov a,255
 313  0018  0300     R  	add a,_set_meal_2[1]
 313  0019  0080     E  	mov rb,a
 313  001A  0FFF        	mov a,255
 313  001B  1F00     E  	clr rc
 313  001C  1380     E  	adcm a,rc
 313  001D  340A        	clr c
 313  001E  1A80     E  	rlc rb
 313  001F  1A80     E  	rlc rc
 313  0020  340A        	clr c
 313  0021  1A80     E  	rlc rb
 313  0022  1A80     E  	rlc rc
 313  0023  0F00     E  	mov a,low (offset _feed_plans+1)
 313  0024  0300     E  	add a,rb
 313  0025  0080     R  	mov _set_meal_2[3],a
 313  0026  0F00     E  	mov a,high (offset _feed_plans+1)
 313  0027  1300     E  	adc a,rc
 313  0028  0080     R  	mov _set_meal_2[4],a
 314  0029              #line 314 "e:\ht66f018_f12\main\menu.c"
 314  0029  0F04        	mov a,4
 314  002A  0080     R  	mov _set_val_2[2],a
 314  002B  0F3B        	mov a,59
 314  002C  0080     R  	mov _set_val_2[1],a
 314  002D  1F00     R  	clr _set_val_2[0]
 314  002E  0700     R  	mov a,_set_meal_2[3]
 314  002F  0083        	mov mp,a
 314  0030  0700     R  	mov a,_set_meal_2[4]
 314  0031  0081        	mov sbp,a
 314  0032  2000     E  	call _Crom2Prom
 314  0033  2000     R  	call _set_val
 314  0034  0080     E  	mov ra,a
 314  0035  0700     R  	mov a,_set_meal_2[3]
 314  0036  0083        	mov mp,a
 314  0037  0700     R  	mov a,_set_meal_2[4]
 314  0038  0081        	mov sbp,a
 314  0039  0701        	mov a,sbp
 314  003A  0084        	mov bp,a
 314  003B  0700     E  	mov a,ra
 314  003C  0082        	mov ir,a
 316  003D              #line 316 "e:\ht66f018_f12\main\menu.c"
 316  003D  0F13        	mov a,19
 316  003E  2800     R  	jmp _L65
 316  003F              _L54:
 286  003F              #line 286 "e:\ht66f018_f12\main\menu.c"
 286  003F  0F01        	mov a,1
 286  0040  0080     R  	mov _set_val_2[2],a
 286  0041  0F06        	mov a,6
文件：menu.c       编译器版本 HGASM 0202 页次20

 286  0042  0080     R  	mov _set_val_2[1],a
 286  0043  0F01        	mov a,1
 286  0044  0080     R  	mov _set_val_2[0],a
 286  0045  0700     R  	mov a,_set_meal_2[1]
 286  0046  2000     R  	call _set_val
 286  0047  0080     R  	mov _set_meal_2[1],a
 288  0048              #line 288 "e:\ht66f018_f12\main\menu.c"
 288  0048  0700     R  	mov a,_set_meal_2[1]
 288  0049  2000     R  	call _get_meal
 289  004A              #line 289 "e:\ht66f018_f12\main\menu.c"
 289  004A  0F10        	mov a,16
 289  004B  2800     R  	jmp _L65
 289  004C              _L55:
 295  004C              #line 295 "e:\ht66f018_f12\main\menu.c"
 295  004C  0FFF        	mov a,255
 295  004D  0300     R  	add a,_set_meal_2[1]
 295  004E  0080     E  	mov rb,a
 295  004F  0FFF        	mov a,255
 295  0050  1F00     E  	clr rc
 295  0051  1380     E  	adcm a,rc
 295  0052  340A        	clr c
 295  0053  1A80     E  	rlc rb
 295  0054  1A80     E  	rlc rc
 295  0055  340A        	clr c
 295  0056  1A80     E  	rlc rb
 295  0057  1A80     E  	rlc rc
 295  0058  0F00     E  	mov a,low (offset _feed_plans+2)
 295  0059  0300     E  	add a,rb
 295  005A  0080     R  	mov _set_meal_2[3],a
 295  005B  0F00     E  	mov a,high (offset _feed_plans+2)
 295  005C  1300     E  	adc a,rc
 295  005D  0080     R  	mov _set_meal_2[4],a
 296  005E              #line 296 "e:\ht66f018_f12\main\menu.c"
 296  005E  0F02        	mov a,2
 296  005F  0080     R  	mov _set_val_2[2],a
 296  0060  0F28        	mov a,40
 296  0061  0080     R  	mov _set_val_2[1],a
 296  0062  0F01        	mov a,1
 296  0063  0080     R  	mov _set_val_2[0],a
 296  0064  0700     R  	mov a,_set_meal_2[3]
 296  0065  0083        	mov mp,a
 296  0066  0700     R  	mov a,_set_meal_2[4]
 296  0067  0081        	mov sbp,a
 296  0068  2000     E  	call _Crom2Prom
 296  0069  2000     R  	call _set_val
 296  006A  0080     E  	mov ra,a
 296  006B  0700     R  	mov a,_set_meal_2[3]
 296  006C  0083        	mov mp,a
 296  006D  0700     R  	mov a,_set_meal_2[4]
 296  006E  0081        	mov sbp,a
 296  006F  0701        	mov a,sbp
 296  0070  0084        	mov bp,a
 296  0071  0700     E  	mov a,ra
 296  0072  0082        	mov ir,a
 298  0073              #line 298 "e:\ht66f018_f12\main\menu.c"
 298  0073  0F11        	mov a,17
 298  0074  2800     R  	jmp _L65
 298  0075              _L56:
 304  0075              #line 304 "e:\ht66f018_f12\main\menu.c"
 304  0075  0FFF        	mov a,255
文件：menu.c       编译器版本 HGASM 0202 页次21

 304  0076  0300     R  	add a,_set_meal_2[1]
 304  0077  0080     E  	mov rb,a
 304  0078  0FFF        	mov a,255
 304  0079  1F00     E  	clr rc
 304  007A  1380     E  	adcm a,rc
 304  007B  340A        	clr c
 304  007C  1A80     E  	rlc rb
 304  007D  1A80     E  	rlc rc
 304  007E  340A        	clr c
 304  007F  1A80     E  	rlc rb
 304  0080  1A80     E  	rlc rc
 304  0081  0F00     E  	mov a,low offset _feed_plans
 304  0082  0300     E  	add a,rb
 304  0083  0080     R  	mov _set_meal_2[3],a
 304  0084  0F00     E  	mov a,high offset _feed_plans
 304  0085  1300     E  	adc a,rc
 304  0086  0080     R  	mov _set_meal_2[4],a
 305  0087              #line 305 "e:\ht66f018_f12\main\menu.c"
 305  0087  0F03        	mov a,3
 305  0088  0080     R  	mov _set_val_2[2],a
 305  0089  0F17        	mov a,23
 305  008A  0080     R  	mov _set_val_2[1],a
 305  008B  1F00     R  	clr _set_val_2[0]
 305  008C  0700     R  	mov a,_set_meal_2[3]
 305  008D  0083        	mov mp,a
 305  008E  0700     R  	mov a,_set_meal_2[4]
 305  008F  0081        	mov sbp,a
 305  0090  2000     E  	call _Crom2Prom
 305  0091  2000     R  	call _set_val
 305  0092  0080     E  	mov ra,a
 305  0093  0700     R  	mov a,_set_meal_2[3]
 305  0094  0083        	mov mp,a
 305  0095  0700     R  	mov a,_set_meal_2[4]
 305  0096  0081        	mov sbp,a
 305  0097  0701        	mov a,sbp
 305  0098  0084        	mov bp,a
 305  0099  0700     E  	mov a,ra
 305  009A  0082        	mov ir,a
 307  009B              #line 307 "e:\ht66f018_f12\main\menu.c"
 307  009B  0F12        	mov a,18
 307  009C              _L65:
 316  009C              #line 316 "e:\ht66f018_f12\main\menu.c"
 316  009C  2000     E  	call _UART_SoftWareSendByte
 318  009D              #line 318 "e:\ht66f018_f12\main\menu.c"
 318  009D  2800     R  	jmp _L53
 318  009E              _L64:
 321  009E              #line 321 "e:\ht66f018_f12\main\menu.c"
 321  009E  0F05        	mov a,5
 321  009F  0080     R  	mov _set_meal_2[0],a
 321  00A0              _L53:
 324  00A0              #line 324 "e:\ht66f018_f12\main\menu.c"
 324  00A0  0700     R  	mov a,_set_val_flag[0]
 324  00A1  0080     R  	mov _set_meal_2[3],a
 324  00A2  1700     R  	sdza _set_meal_2[3]
 324  00A3  2800     R  	jmp _L58
 327  00A4              #line 327 "e:\ht66f018_f12\main\menu.c"
 327  00A4  1580     R  	dec _set_meal_2[0]
 328  00A5              #line 328 "e:\ht66f018_f12\main\menu.c"
 328  00A5  1F00     R  	clr _set_val_flag[0]
 328  00A6  2800     R  	jmp _L62
文件：menu.c       编译器版本 HGASM 0202 页次22

 328  00A7              _L58:
 330  00A7              #line 330 "e:\ht66f018_f12\main\menu.c"
 330  00A7  0F01        	mov a,1
 330  00A8  0200     R  	sub a,_set_meal_2[3]
 330  00A9  3C0A        	sz c
 330  00AA  2800     R  	jmp _L60
 332  00AB              #line 332 "e:\ht66f018_f12\main\menu.c"
 332  00AB  1480     R  	inc _set_meal_2[0]
 333  00AC              #line 333 "e:\ht66f018_f12\main\menu.c"
 333  00AC  1F00     R  	clr _set_val_flag[0]
 333  00AD              _L60:
 336  00AD              #line 336 "e:\ht66f018_f12\main\menu.c"
 336  00AD  0F04        	mov a,4
 336  00AE  0200     R  	sub a,_set_meal_2[0]
 336  00AF  1185        	swap acc
 336  00B0  040A        	xor a,status
 336  00B1  3985        	snz acc.3
 336  00B2  2800     R  	jmp _L62
 338  00B3              #line 338 "e:\ht66f018_f12\main\menu.c"
 338  00B3  0700     R  	mov a,_set_meal_2[1]
 338  00B4  0300     R  	add a,_set_meal_2[1]
 338  00B5  0080     E  	mov ra,a
 338  00B6  0700     E  	mov a,ra
 338  00B7  0300     E  	add a,ra
 338  00B8  0080     R  	mov _set_meal_2[0],a
 338  00B9  0FFF        	mov a,255
 338  00BA  0300     R  	add a,_set_meal_2[1]
 338  00BB  0080     E  	mov rb,a
 338  00BC  0FFF        	mov a,255
 338  00BD  1F00     E  	clr rc
 338  00BE  1380     E  	adcm a,rc
 338  00BF  340A        	clr c
 338  00C0  1A00     E  	rlca rb
 338  00C1  0080     R  	mov _set_meal_2[1],a
 338  00C2  1A00     E  	rlca rc
 338  00C3  0080     R  	mov _set_meal_2[2],a
 338  00C4  340A        	clr c
 338  00C5  1A80     R  	rlc _set_meal_2[1]
 338  00C6  1A80     R  	rlc _set_meal_2[2]
 338  00C7  1400     R  	inca _set_meal_2[0]
 338  00C8  0080     E  	mov _EEPROM_Write_Byte_2[0],a
 338  00C9  0F00     E  	mov a,low offset _feed_plans
 338  00CA  0300     R  	add a,_set_meal_2[1]
 338  00CB  0083        	mov mp,a
 338  00CC  0F00     E  	mov a,high offset _feed_plans
 338  00CD  1300     R  	adc a,_set_meal_2[2]
 338  00CE  0081        	mov sbp,a
 338  00CF  2000     E  	call _Crom2Prom
 338  00D0  2000     E  	call _EEPROM_Write_Byte
 339  00D1              #line 339 "e:\ht66f018_f12\main\menu.c"
 339  00D1  0700     R  	mov a,_set_meal_2[0]
 339  00D2  0B02        	add a,2
 339  00D3  0080     E  	mov _EEPROM_Write_Byte_2[0],a
 339  00D4  0F00     E  	mov a,low (offset _feed_plans+1)
 339  00D5  0300     R  	add a,_set_meal_2[1]
 339  00D6  0083        	mov mp,a
 339  00D7  0F00     E  	mov a,high (offset _feed_plans+1)
 339  00D8  1300     R  	adc a,_set_meal_2[2]
 339  00D9  0081        	mov sbp,a
 339  00DA  2000     E  	call _Crom2Prom
文件：menu.c       编译器版本 HGASM 0202 页次23

 339  00DB  2000     E  	call _EEPROM_Write_Byte
 340  00DC              #line 340 "e:\ht66f018_f12\main\menu.c"
 340  00DC  0700     R  	mov a,_set_meal_2[0]
 340  00DD  0B03        	add a,3
 340  00DE  0080     E  	mov _EEPROM_Write_Byte_2[0],a
 340  00DF  0F00     E  	mov a,low (offset _feed_plans+2)
 340  00E0  0300     R  	add a,_set_meal_2[1]
 340  00E1  0083        	mov mp,a
 340  00E2  0F00     E  	mov a,high (offset _feed_plans+2)
 340  00E3  1300     R  	adc a,_set_meal_2[2]
 340  00E4  0081        	mov sbp,a
 340  00E5  2000     E  	call _Crom2Prom
 340  00E6  2000     E  	call _EEPROM_Write_Byte
 342  00E7              #line 342 "e:\ht66f018_f12\main\menu.c"
 342  00E7  1F00     R  	clr _set_meal_flag[0]
 349  00E8              #line 349 "e:\ht66f018_f12\main\menu.c"
 349  00E8  0F00        	mov a,0
 349  00E9  0003        	ret
 349  00EA              _set_meal endp
 349  00EA              #line 349 "e:\ht66f018_f12\main\menu.c"
 349  00EA              #pragma debug scope 1 1
 349  00EA              public _set_meal_flag
 349  0000              @HCCINIT	.section 'data'
  15  0000              #line 15 "e:\ht66f018_f12\main\menu.c"
  15  0000              @HCCINIT .section 'data'
  15  0000              _set_meal_flag label byte
  15  0000              #pragma debug variable 8 1 _set_meal_flag "set_meal_flag"
  15  0000              	db 0
  15  0000              @ROMDATA_BASE .section inpage 'code'
  15  0000              	db 0
  15  0001              @HCCINIT .section 'data'
  15  0001              public _set_time_flag
  14  0001              #line 14 "e:\ht66f018_f12\main\menu.c"
  14  0001              @HCCINIT .section 'data'
  14  0001              _set_time_flag label byte
  14  0001              #pragma debug variable 8 1 _set_time_flag "set_time_flag"
  14  0001              	db 0
  14  0001              @ROMDATA_BASE .section inpage 'code'
  14  0001              	db 0
  14  0002              @HCCINIT .section 'data'
  14  0002              public _set_val_flag
  13  0002              #line 13 "e:\ht66f018_f12\main\menu.c"
  13  0002              @HCCINIT .section 'data'
  13  0002              _set_val_flag label byte
  13  0002              #pragma debug variable 8 1 _set_val_flag "set_val_flag"
  13  0002              	db 0
  13  0001              @ROMDATA_BASE .section inpage 'code'
  13  0001              	db 0
  13  0003              @HCCINIT .section 'data'
  13  0000              @crom	.section 'crom'

 318  0000              #line 318 "e:\ht66f018_f12\main\define.h"
 318  0000              @crom	.section	'crom'
 318  0000              _Num_tab_7:
 318  0000              #pragma debug array 43 8 10 1
 318  0000              #pragma debug array 43 8 10 1
 318  0000              #pragma debug variable 43 1 _Num_tab_7 "Num_tab_7"
 318  0000              	db 63
 318  0001              	db 6
 318  0001              	db 91
文件：define.h     编译器版本 HGASM 0202 页次24

 318  0002              	db 79
 318  0002              	db 102
 318  0003              	db 109
 318  0003              	db 125
 318  0004              	db 7
 318  0004              	db 127
 318  0005              	db 111
 318  0005              
 318  0005              ; output external variables
 318  0005              extern _feed_plans:byte
 318  0005              extern _rtc_date:byte
 318  0005              extern _key_scan:near
 318  0005              extern _UART_SoftWareSendByte:near
 318  0005              extern _builtin_holtek_udivmodqi4_2:byte
 318  0005              extern _builtin_holtek_udivmodqi4:near
 318  0005              extern _Write_DATA_2:byte
 318  0005              extern _Write_DATA:near
 318  0005              extern _use_delay_us_2:byte
 318  0005              extern _use_delay_us:near
 318  0005              extern _time_save:near
 318  0005              extern _EEPROM_Read_Byte:near
 318  0005              extern _EEPROM_Write_Byte_2:byte
 318  0005              extern _EEPROM_Write_Byte:near
 318  0005              
 318  0005              ; 
 318  0005              ; Generated by holtek-gcc v3.19, Fri Jan 21 10:08:33 2022
 318  0005              ; Rebuild 718
 318  0005              ; end of file


        0 Errors, 0