文件：define.h     编译器版本 HGASM 0202 页次1


   1  0000              ; Generated by holtek-gcc v3.19, Fri Jan 21 10:15:02 2022
   2  0000              ; 
   3  0000              ; Configuration:
   4  0000              ;       without long instruction
   5  0000              ;       Single ROM, Multi-RAM
   6  0000              ;       bits_per_rom_unit:16
   7  0000              ;       with mp1
   8  0000              ;       with tbhp, address(0x9)
   9  0000              ;          Use tabrd-const
  10  0000              ;       
  11  0000              ;       
  12  0000              ;       
  13  0000              ; use 'tabrdc' instead of 'tabrd'
  14  0000              ;       
  15  0000              
  16  0000              #pragma translator "holtek-gcc 4.6.4" "3.19" "build 20130711"
  17  0000              ; Rebuild 718
  18  0000              
  19  0000              ir equ [2]
  20  0000              mp equ [3]
  21  0000              sbp equ [1]
  22  0000              acc equ [5]
  23  0000              bp equ [4]
  24  0000              tblp equ [7]
  25  0000              tbhp equ [9]
  26  0000              status equ [10]
  27  0000              c equ [10].0
  28  0000              ac equ [10].1
  29  0000              z equ [10].2
  30  0000              ov equ [10].3
  31  0000              intc equ [11]
  32  0000              
  33  0000              extern ra:byte
  34  0000              extern rb:byte
  35  0000              extern rc:byte
  36  0000              extern rd:byte
  37  0000              extern re:byte
  38  0000              extern rf:byte
  39  0000              extern rg:byte
  40  0000              extern rh:byte
  41  0000              extern _Crom2Prom:near
  42  0000              extern _Crom2PromNext:near
  43  0000              
  44  0000              RAMBANK 0 @HCCINIT, @HCCINIT0
  45  0000              
  46  0000              RAMBANK 0 @BITDATASEC, @BITDATASEC1
  47  0000              @HCCINIT	.section 'data'
  48  0000              @HCCINIT0	.section 'data'
  49  0000              @BITDATASEC	 .section 'data'
  50  0000              @BITDATASEC1	 .section 'data'
  51  0000              
  52  0000              #pragma debug scope 1 1
  53  0000              	extern __DELAY3:near
  54  0000              	extern __DELAYX3:near
  55  0000              	extern __DELAYX6:near
  56  0000              	extern __DELAYY5:near
  57  0000              	extern __DELAYY3:near
  58  0000              	extern _builtin_holtek_delay_2:byte
  59  0000              public _rtc_lcd
文件：LCD.ASM      编译器版本 HGASM 0202 页次2

  60  0000              #pragma debug scope 2 1

  21  0000              #line 21 "E:\HT66F018_F12\record_new\LCD.c"
  21  0000              _rtc_lcd .section 'code'
  21  0000              _rtc_lcd proc
  22  0000              #line 22 "E:\HT66F018_F12\record_new\LCD.c"
  22  0000  1F00     E  	clr _builtin_holtek_udivmodqi4_2[3]
  22  0001  0700     E  	mov a,_rtc_date[0]
  22  0002  0080     E  	mov _builtin_holtek_udivmodqi4_2[0],a
  22  0003  0F0A        	mov a,10
  22  0004  0080     E  	mov _builtin_holtek_udivmodqi4_2[1],a
  22  0005  2000     E  	call _builtin_holtek_udivmodqi4
  22  0006  0700     E  	mov a,_builtin_holtek_udivmodqi4_2[0]
  22  0007  0080     E  	mov ra,a
  22  0008  0F00     R  	mov a,low offset _Num_tab_7
  22  0009  0300     E  	add a,ra
  22  000A  0083        	mov mp,a
  22  000B  0F00     R  	mov a,high offset _Num_tab_7
  22  000C  1F01        	clr sbp
  22  000D  1381        	adcm a,sbp
  22  000E  2000     E  	call _Crom2Prom
  22  000F  0080     E  	mov _Write_DATA_2[0],a
  22  0010  0FC0        	mov a,192
  22  0011  2000     E  	call _Write_DATA
  25  0012              #line 25 "E:\HT66F018_F12\record_new\LCD.c"
  25  0012  3C00     E  	sz _rtc_date[2].0
  25  0013  2800     R  	jmp _L2
  27  0014              #line 27 "E:\HT66F018_F12\record_new\LCD.c"
  27  0014  1F00     E  	clr _builtin_holtek_udivmodqi4_2[3]
  27  0015  0700     E  	mov a,_rtc_date[0]
  27  0016  0080     E  	mov _builtin_holtek_udivmodqi4_2[0],a
  27  0017  0F0A        	mov a,10
  27  0018  0080     E  	mov _builtin_holtek_udivmodqi4_2[1],a
  27  0019  2000     E  	call _builtin_holtek_udivmodqi4
  27  001A  0700     E  	mov a,_builtin_holtek_udivmodqi4_2[2]
  27  001B  0080     E  	mov ra,a
  27  001C  0F00     R  	mov a,low offset _Num_tab_7
  27  001D  0300     E  	add a,ra
  27  001E  0083        	mov mp,a
  27  001F  0F00     R  	mov a,high offset _Num_tab_7
  27  0020  1F01        	clr sbp
  27  0021  1381        	adcm a,sbp
  27  0022  2800     R  	jmp _L4
  27  0023              _L2:
  31  0023              #line 31 "E:\HT66F018_F12\record_new\LCD.c"
  31  0023  1F00     E  	clr _builtin_holtek_udivmodqi4_2[3]
  31  0024  0700     E  	mov a,_rtc_date[0]
  31  0025  0080     E  	mov _builtin_holtek_udivmodqi4_2[0],a
  31  0026  0F0A        	mov a,10
  31  0027  0080     E  	mov _builtin_holtek_udivmodqi4_2[1],a
  31  0028  2000     E  	call _builtin_holtek_udivmodqi4
  31  0029  0700     E  	mov a,_builtin_holtek_udivmodqi4_2[2]
  31  002A  0080     E  	mov ra,a
  31  002B  0F00     R  	mov a,low offset _Num_tab_8
  31  002C  0300     E  	add a,ra
  31  002D  0083        	mov mp,a
  31  002E  0F00     R  	mov a,high offset _Num_tab_8
  31  002F  1F01        	clr sbp
  31  0030  1381        	adcm a,sbp
  31  0031              _L4:
文件：LCD.c        编译器版本 HGASM 0202 页次3

  31  0031  2000     E  	call _Crom2Prom
  31  0032  0080     E  	mov _Write_DATA_2[0],a
  31  0033  0FC2        	mov a,194
  31  0034  2000     E  	call _Write_DATA
  35  0035              #line 35 "E:\HT66F018_F12\record_new\LCD.c"
  35  0035  1F00     E  	clr _builtin_holtek_udivmodqi4_2[3]
  35  0036  0700     E  	mov a,_rtc_date[1]
  35  0037  0080     E  	mov _builtin_holtek_udivmodqi4_2[0],a
  35  0038  0F0A        	mov a,10
  35  0039  0080     E  	mov _builtin_holtek_udivmodqi4_2[1],a
  35  003A  2000     E  	call _builtin_holtek_udivmodqi4
  35  003B  0700     E  	mov a,_builtin_holtek_udivmodqi4_2[0]
  35  003C  0080     E  	mov ra,a
  35  003D  0F00     R  	mov a,low offset _Num_tab_7
  35  003E  0300     E  	add a,ra
  35  003F  0083        	mov mp,a
  35  0040  0F00     R  	mov a,high offset _Num_tab_7
  35  0041  1F01        	clr sbp
  35  0042  1381        	adcm a,sbp
  35  0043  2000     E  	call _Crom2Prom
  35  0044  0080     E  	mov _Write_DATA_2[0],a
  35  0045  0FC4        	mov a,196
  35  0046  2000     E  	call _Write_DATA
  36  0047              #line 36 "E:\HT66F018_F12\record_new\LCD.c"
  36  0047  1F00     E  	clr _builtin_holtek_udivmodqi4_2[3]
  36  0048  0700     E  	mov a,_rtc_date[1]
  36  0049  0080     E  	mov _builtin_holtek_udivmodqi4_2[0],a
  36  004A  0F0A        	mov a,10
  36  004B  0080     E  	mov _builtin_holtek_udivmodqi4_2[1],a
  36  004C  2000     E  	call _builtin_holtek_udivmodqi4
  36  004D  0700     E  	mov a,_builtin_holtek_udivmodqi4_2[2]
  36  004E  0080     E  	mov ra,a
  36  004F  0F00     R  	mov a,low offset _Num_tab_7
  36  0050  0300     E  	add a,ra
  36  0051  0083        	mov mp,a
  36  0052  0F00     R  	mov a,high offset _Num_tab_7
  36  0053  1F01        	clr sbp
  36  0054  1381        	adcm a,sbp
  36  0055  2000     E  	call _Crom2Prom
  36  0056  0080     E  	mov _Write_DATA_2[0],a
  36  0057  0FC6        	mov a,198
  36  0058  2000     E  	call _Write_DATA
  37  0059              #line 37 "E:\HT66F018_F12\record_new\LCD.c"
  37  0059  1F00     E  	clr _Write_DATA_2[0]
  37  005A  0FC8        	mov a,200
  37  005B  2000     E  	call _Write_DATA
  38  005C              #line 38 "E:\HT66F018_F12\record_new\LCD.c"
  38  005C  1F00     E  	clr _Write_DATA_2[0]
  38  005D  0FCA        	mov a,202
  38  005E  2000     E  	call _Write_DATA
  39  005F              #line 39 "E:\HT66F018_F12\record_new\LCD.c"
  39  005F  1F00     E  	clr _Write_DATA_2[0]
  39  0060  0FCC        	mov a,204
  39  0061  2000     E  	call _Write_DATA
  39  0062  0003        	ret
  39  0063              _rtc_lcd endp
  39  0063              #line 39 "E:\HT66F018_F12\record_new\LCD.c"
  39  0063              #pragma debug scope 1 1
  39  0063              public _col_staus
  39  0000              @HCCINIT	.section 'data'
文件：LCD.c        编译器版本 HGASM 0202 页次4

  17  0000              #line 17 "E:\HT66F018_F12\record_new\LCD.c"
  17  0000              @HCCINIT .section 'data'
  17  0000              _col_staus label byte
  17  0000              #pragma debug variable 8 1 _col_staus "col_staus"
  17  0000              	db 1
  17  0000              @ROMDATA_BASE .section inpage 'code'
  17  0000              	db 1
  17  0001              @HCCINIT .section 'data'
  17  0000              @crom	.section 'crom'

 358  0000              #line 358 "E:\HT66F018_F12\record_new\define.h"
 358  0000              @crom	.section	'crom'
 358  0000              _Num_tab_8:
 358  0000              #pragma debug array 42 8 10 1
 358  0000              #pragma debug array 42 8 10 1
 358  0000              #pragma debug variable 42 1 _Num_tab_8 "Num_tab_8"
 358  0000              	db -65
 358  0001              	db -122
 358  0001              	db -37
 358  0002              	db -49
 358  0002              	db -26
 358  0003              	db -19
 358  0003              	db -3
 358  0004              	db -121
 358  0004              	db -1
 358  0005              	db -17
 357  0005              #line 357 "E:\HT66F018_F12\record_new\define.h"
 357  0005              @crom	.section	'crom'
 357  0005              _Num_tab_7:
 357  0005              #pragma debug variable 42 1 _Num_tab_7 "Num_tab_7"
 357  0005              	db 63
 357  0006              	db 6
 357  0006              	db 91
 357  0007              	db 79
 357  0007              	db 102
 357  0008              	db 109
 357  0008              	db 125
 357  0009              	db 7
 357  0009              	db 127
 357  000A              	db 111
 357  000A              
 357  000A              ; output external variables
 357  000A              extern _rtc_date:byte
 357  000A              extern _builtin_holtek_udivmodqi4_2:byte
 357  000A              extern _builtin_holtek_udivmodqi4:near
 357  000A              extern _Write_DATA_2:byte
 357  000A              extern _Write_DATA:near
 357  000A              
 357  000A              ; 
 357  000A              ; Generated by holtek-gcc v3.19, Fri Jan 21 10:15:02 2022
 357  000A              ; Rebuild 718
 357  000A              ; end of file


        0 Errors, 0