文件：HT8_ADC.c    编译器版本 HGASM 0202 页次1


   1  0000              ; Generated by holtek-gcc v3.19, Tue Jan 11 09:53:18 2022
   2  0000              ; 
   3  0000              ; Configuration:
   4  0000              ;       without long instruction
   5  0000              ;       Single ROM, Multi-RAM
   6  0000              ;       bits_per_rom_unit:16
   7  0000              ;       with mp1
   8  0000              ;       with tbhp, address(0x9)
   9  0000              ;          Use tabrd-const
  10  0000              ;       
  11  0000              ;       
  12  0000              ;       
  13  0000              ; use 'tabrdc' instead of 'tabrd'
  14  0000              ;       
  15  0000              
  16  0000              #pragma translator "holtek-gcc 4.6.4" "3.19" "build 20130711"
  17  0000              ; Rebuild 718
  18  0000              
  19  0000              ir equ [2]
  20  0000              mp equ [3]
  21  0000              sbp equ [1]
  22  0000              acc equ [5]
  23  0000              bp equ [4]
  24  0000              tblp equ [7]
  25  0000              tbhp equ [9]
  26  0000              status equ [10]
  27  0000              c equ [10].0
  28  0000              ac equ [10].1
  29  0000              z equ [10].2
  30  0000              ov equ [10].3
  31  0000              intc equ [11]
  32  0000              
  33  0000              extern ra:byte
  34  0000              extern rb:byte
  35  0000              extern rc:byte
  36  0000              extern rd:byte
  37  0000              extern re:byte
  38  0000              extern rf:byte
  39  0000              extern rg:byte
  40  0000              extern rh:byte
  41  0000              extern _Crom2Prom:near
  42  0000              extern _Crom2PromNext:near
  43  0000              
  44  0000              RAMBANK 0 @HCCINIT, @HCCINIT0
  45  0000              
  46  0000              RAMBANK 0 @BITDATASEC, @BITDATASEC1
  47  0000              @HCCINIT	.section 'data'
  48  0000              @HCCINIT0	.section 'data'
  49  0000              @BITDATASEC	 .section 'data'
  50  0000              @BITDATASEC1	 .section 'data'
  51  0000              
  52  0000              #pragma debug scope 1 1
  53  0000              	extern __DELAY3:near
  54  0000              	extern __DELAYX3:near
  55  0000              	extern __DELAYX6:near
  56  0000              	extern __DELAYY5:near
  57  0000              	extern __DELAYY3:near
  58  0000              	extern _builtin_holtek_delay_2:byte
  59  0000              ___adcr1 equ [35]
文件：HT8_ADC.ASM  编译器版本 HGASM 0202 页次2

  60  0000              ___adcr0 equ [34]
  61  0000              public _ADC_Init
  62  0000              #pragma debug scope 2 1

  38  0000              #line 38 "e:\f12-ht66f018\adc_polling\src\HT8_ADC.c"
  38  0000              _ADC_Init .section 'code'
  38  0000              _ADC_Init proc
  58  0000              #line 58 "e:\f12-ht66f018\adc_polling\src\HT8_ADC.c"
  58  0000  3523        	clr [35].2
  58  0001  30A3        	set [35].1
  58  0002  3023        	set [35].0
  83  0003              #line 83 "e:\f12-ht66f018\adc_polling\src\HT8_ADC.c"
  83  0003  3222        	set [34].4
  97  0004              #line 97 "e:\f12-ht66f018\adc_polling\src\HT8_ADC.c"
  97  0004  3623        	clr [35].4
  97  0005  0003        	ret
  97  0006              _ADC_Init endp
  97  0006              #line 97 "e:\f12-ht66f018\adc_polling\src\HT8_ADC.c"
  97  0006              #pragma debug scope 1 1
  97  0006              ___acerl equ [36]
  97  0006              public _ADC_SelectChannel
  97  0006              #pragma debug scope 3 1
 116  0006              #line 116 "e:\f12-ht66f018\adc_polling\src\HT8_ADC.c"
 116  0000              _ADC_SelectChannel .section 'code'
 116  0000              _ADC_SelectChannel proc
 116  0000  00              local _ADC_SelectChannel_2 db 1 dup(?)	; 0,1
 116  0000  0080     R  	mov _ADC_SelectChannel_2[0],a
 116  0001              #pragma debug variable 8 3 _ADC_SelectChannel_2+0 "ADC_Channel"
 117  0001              #line 117 "e:\f12-ht66f018\adc_polling\src\HT8_ADC.c"
 117  0001  37A3        	clr [35].7
 118  0002              #line 118 "e:\f12-ht66f018\adc_polling\src\HT8_ADC.c"
 118  0002  0F07        	mov a,7
 118  0003  0200     R  	sub a,_ADC_SelectChannel_2[0]
 118  0004  380A        	snz c
 118  0005  2800     R  	jmp _L3
 121  0006              #line 121 "e:\f12-ht66f018\adc_polling\src\HT8_ADC.c"
 121  0006  0FF8        	mov a,248
 121  0007  06A2        	andm a,[34]
 124  0008              #line 124 "e:\f12-ht66f018\adc_polling\src\HT8_ADC.c"
 124  0008  0700     R  	mov a,_ADC_SelectChannel_2[0]
 124  0009  05A2        	orm a,[34]
 127  000A              #line 127 "e:\f12-ht66f018\adc_polling\src\HT8_ADC.c"
 127  000A  0F01        	mov a,1
 127  000B  00A4        	mov [36],a
 128  000C              #line 128 "e:\f12-ht66f018\adc_polling\src\HT8_ADC.c"
 128  000C  0724        	mov a,[36]
 128  000D  0080     E  	mov rb,a
 128  000E  1F00     E  	clr rc
 128  000F  1400     R  	inca _ADC_SelectChannel_2[0]
 128  0010  2800     R  	jmp _LI1
 128  0011              _LI2:
 128  0011  340A        	clr c
 128  0012  1A80     E  	rlc rb
 128  0013  1A80     E  	rlc rc
 128  0014              _LI1:
 128  0014  1785        	sdz acc
 128  0015  2800     R  	jmp _LI2
 128  0016  0700     E  	mov a,rb
 128  0017  00A4        	mov [36],a
 128  0018  2800     R  	jmp _L2
文件：HT8_ADC.c    编译器版本 HGASM 0202 页次3

 128  0019              _L3:
 133  0019              #line 133 "e:\f12-ht66f018\adc_polling\src\HT8_ADC.c"
 133  0019  3323        	set [35].6
 134  001A              #line 134 "e:\f12-ht66f018\adc_polling\src\HT8_ADC.c"
 134  001A  33A3        	set [35].7
 134  001B              _L2:
 134  001B  0003        	ret
 134  001C              _ADC_SelectChannel endp
 134  001C              #line 134 "e:\f12-ht66f018\adc_polling\src\HT8_ADC.c"
 134  001C              #pragma debug scope 1 1
 134  001C              ___adrh equ [33]
 134  001C              ___adrl equ [32]
 134  001C              public _ADC_GetValue
 134  001C              #pragma debug scope 4 1
 145  001C              #line 145 "e:\f12-ht66f018\adc_polling\src\HT8_ADC.c"
 145  0000              _ADC_GetValue .section 'code'
 145  0000              _ADC_GetValue proc
 149  0000              #line 149 "e:\f12-ht66f018\adc_polling\src\HT8_ADC.c"
 149  0000  37A2        	clr [34].7
 149  0001  33A2        	set [34].7
 149  0002  37A2        	clr [34].7
 149  0003              _L8:
 152  0003              #line 152 "e:\f12-ht66f018\adc_polling\src\HT8_ADC.c"
 152  0003  3F22        	sz [34].6
 152  0004  2800     R  	jmp _L8
 158  0005              #line 158 "e:\f12-ht66f018\adc_polling\src\HT8_ADC.c"
 158  0005  0721        	mov a,[33]
 158  0006  0080     E  	mov rc,a
 158  0007  1F00     E  	clr rb
 169  0008              #line 169 "e:\f12-ht66f018\adc_polling\src\HT8_ADC.c"
 169  0008  0700     E  	mov a,rc
 169  0009  0080     E  	mov re,a
 169  000A  0720        	mov a,[32]
 169  000B  0500     E  	or a,rb
 169  000C  0080     E  	mov rd,a
 169  000D  0700     E  	mov a,rd
 169  000E  0080     E  	mov ra,a
 169  000F  0700     E  	mov a,re
 169  0010  0080     E  	mov rb,a
 169  0011  0003        	ret
 169  0012              _ADC_GetValue endp
 169  0012              #line 169 "e:\f12-ht66f018\adc_polling\src\HT8_ADC.c"
 169  0012              #pragma debug scope 1 1
 169  0012              public _ADC_GetChannelValue
 169  0012              #pragma debug scope 5 1
 182  0012              #line 182 "e:\f12-ht66f018\adc_polling\src\HT8_ADC.c"
 182  0000              _ADC_GetChannelValue .section 'code'
 182  0000              _ADC_GetChannelValue proc
 182  0000  00              local _ADC_GetChannelValue_2 db 1 dup(?)	; 0,1
 182  0000  0080     R  	mov _ADC_GetChannelValue_2[0],a
 182  0001              #pragma debug variable 8 5 _ADC_GetChannelValue_2+0 "ADC_Channel"
 185  0001              #line 185 "e:\f12-ht66f018\adc_polling\src\HT8_ADC.c"
 185  0001  37A3        	clr [35].7
 186  0002              #line 186 "e:\f12-ht66f018\adc_polling\src\HT8_ADC.c"
 186  0002  0F07        	mov a,7
 186  0003  0200     R  	sub a,_ADC_GetChannelValue_2[0]
 186  0004  380A        	snz c
 186  0005  2800     R  	jmp _L10
 189  0006              #line 189 "e:\f12-ht66f018\adc_polling\src\HT8_ADC.c"
 189  0006  0FF8        	mov a,248
文件：HT8_ADC.c    编译器版本 HGASM 0202 页次4

 189  0007  06A2        	andm a,[34]
 192  0008              #line 192 "e:\f12-ht66f018\adc_polling\src\HT8_ADC.c"
 192  0008  0700     R  	mov a,_ADC_GetChannelValue_2[0]
 192  0009  05A2        	orm a,[34]
 195  000A              #line 195 "e:\f12-ht66f018\adc_polling\src\HT8_ADC.c"
 195  000A  0F01        	mov a,1
 195  000B  00A4        	mov [36],a
 196  000C              #line 196 "e:\f12-ht66f018\adc_polling\src\HT8_ADC.c"
 196  000C  0724        	mov a,[36]
 196  000D  0080     E  	mov rb,a
 196  000E  1F00     E  	clr rc
 196  000F  1400     R  	inca _ADC_GetChannelValue_2[0]
 196  0010  2800     R  	jmp _LI3
 196  0011              _LI4:
 196  0011  340A        	clr c
 196  0012  1A80     E  	rlc rb
 196  0013  1A80     E  	rlc rc
 196  0014              _LI3:
 196  0014  1785        	sdz acc
 196  0015  2800     R  	jmp _LI4
 196  0016  0700     E  	mov a,rb
 196  0017  00A4        	mov [36],a
 196  0018  2800     R  	jmp _L11
 196  0019              _L10:
 201  0019              #line 201 "e:\f12-ht66f018\adc_polling\src\HT8_ADC.c"
 201  0019  3323        	set [35].6
 202  001A              #line 202 "e:\f12-ht66f018\adc_polling\src\HT8_ADC.c"
 202  001A  33A3        	set [35].7
 202  001B              _L11:
 206  001B              #line 206 "e:\f12-ht66f018\adc_polling\src\HT8_ADC.c"
 206  001B  37A2        	clr [34].7
 206  001C  33A2        	set [34].7
 206  001D  37A2        	clr [34].7
 206  001E              _L13:
 209  001E              #line 209 "e:\f12-ht66f018\adc_polling\src\HT8_ADC.c"
 209  001E  3F22        	sz [34].6
 209  001F  2800     R  	jmp _L13
 215  0020              #line 215 "e:\f12-ht66f018\adc_polling\src\HT8_ADC.c"
 215  0020  0721        	mov a,[33]
 215  0021  0080     E  	mov rc,a
 215  0022  1F00     E  	clr rb
 227  0023              #line 227 "e:\f12-ht66f018\adc_polling\src\HT8_ADC.c"
 227  0023  0700     E  	mov a,rc
 227  0024  0080     E  	mov re,a
 227  0025  0720        	mov a,[32]
 227  0026  0500     E  	or a,rb
 227  0027  0080     E  	mov rd,a
 227  0028  0700     E  	mov a,rd
 227  0029  0080     E  	mov ra,a
 227  002A  0700     E  	mov a,re
 227  002B  0080     E  	mov rb,a
 227  002C  0003        	ret
 227  002D              _ADC_GetChannelValue endp
 227  002D              #line 227 "e:\f12-ht66f018\adc_polling\src\HT8_ADC.c"
 227  002D              #pragma debug scope 1 1
 227  002D              #pragma debug variable 8 1 ___adrl "__adrl" 1
 227  002D              #pragma debug variable 8 1 ___adrh "__adrh" 1
 227  002D              #pragma debug struct_end
 227  002D              #pragma debug struct_end
 227  002D              #pragma debug union_end
文件：HT8_ADC.c    编译器版本 HGASM 0202 页次5

 227  002D              #pragma debug union_end
 227  002D              #pragma debug variable 43 1 ___adcr0 "__adcr0" 1
 227  002D              #pragma debug struct_end
 227  002D              #pragma debug struct_end
 227  002D              #pragma debug union_end
 227  002D              #pragma debug union_end
 227  002D              #pragma debug variable 45 1 ___adcr1 "__adcr1" 1
 227  002D              #pragma debug struct_end
 227  002D              #pragma debug struct_end
 227  002D              #pragma debug union_end
 227  002D              #pragma debug union_end
 227  002D              #pragma debug variable 47 1 ___acerl "__acerl" 1
 227  002D              
 227  002D              ; 
 227  002D              ; Generated by holtek-gcc v3.19, Tue Jan 11 09:53:18 2022
 227  002D              ; Rebuild 718
 227  002D              ; end of file


        0 Errors, 0