文件：main.c       编译器版本 HGASM 0202 页次1


   1  0000              ; Generated by holtek-gcc v3.19, Tue Jan 11 09:53:18 2022
   2  0000              ; 
   3  0000              ; Configuration:
   4  0000              ;       without long instruction
   5  0000              ;       Single ROM, Multi-RAM
   6  0000              ;       bits_per_rom_unit:16
   7  0000              ;       with mp1
   8  0000              ;       with tbhp, address(0x9)
   9  0000              ;          Use tabrd-const
  10  0000              ;       
  11  0000              ;       
  12  0000              ;       
  13  0000              ; use 'tabrdc' instead of 'tabrd'
  14  0000              ;       
  15  0000              
  16  0000              #pragma translator "holtek-gcc 4.6.4" "3.19" "build 20130711"
  17  0000              ; Rebuild 718
  18  0000              
  19  0000              ir equ [2]
  20  0000              mp equ [3]
  21  0000              sbp equ [1]
  22  0000              acc equ [5]
  23  0000              bp equ [4]
  24  0000              tblp equ [7]
  25  0000              tbhp equ [9]
  26  0000              status equ [10]
  27  0000              c equ [10].0
  28  0000              ac equ [10].1
  29  0000              z equ [10].2
  30  0000              ov equ [10].3
  31  0000              intc equ [11]
  32  0000              
  33  0000              extern ra:byte
  34  0000              extern rb:byte
  35  0000              extern rc:byte
  36  0000              extern rd:byte
  37  0000              extern re:byte
  38  0000              extern rf:byte
  39  0000              extern rg:byte
  40  0000              extern rh:byte
  41  0000              extern _Crom2Prom:near
  42  0000              extern _Crom2PromNext:near
  43  0000              
  44  0000              RAMBANK 0 @HCCINIT, @HCCINIT0
  45  0000              
  46  0000              RAMBANK 0 @BITDATASEC, @BITDATASEC1
  47  0000              @HCCINIT	.section 'data'
  48  0000              @HCCINIT0	.section 'data'
  49  0000              @BITDATASEC	 .section 'data'
  50  0000              @BITDATASEC1	 .section 'data'
  51  0000              
  52  0000              #pragma debug scope 1 1
  53  0000              	extern __DELAY3:near
  54  0000              	extern __DELAYX3:near
  55  0000              	extern __DELAYX6:near
  56  0000              	extern __DELAYY5:near
  57  0000              	extern __DELAYY3:near
  58  0000              	extern _builtin_holtek_delay_2:byte
  59  0000              ___pb equ [37]
文件：main.ASM     编译器版本 HGASM 0202 页次2

  60  0000              public _send_8bit
  61  0000              #pragma debug scope 2 1

  59  0000              #line 59 "e:\f12-ht66f018\adc_polling\src\main.c"
  59  0000              _send_8bit .section 'code'
  59  0000              _send_8bit proc
  59  0000  00              local _send_8bit_2 db 1 dup(?)	; 0,1
  59  0000  0080     R  	mov _send_8bit_2[0],a
  59  0001              #pragma debug variable 8 2 _send_8bit_2+0 "dat"
  59  0001  0F08        	mov a,8
  59  0002  0080     E  	mov ra,a
  59  0003              _L5:
  63  0003              #line 63 "e:\f12-ht66f018\adc_polling\src\main.c"
  63  0003  36A5        	clr [37].5
  65  0004              #line 65 "e:\f12-ht66f018\adc_polling\src\main.c"
  65  0004  3800     R  	snz _send_8bit_2[0].0
  65  0005  2800     R  	jmp _L2
  66  0006              #line 66 "e:\f12-ht66f018\adc_polling\src\main.c"
  66  0006  3325        	set [37].6
  66  0007  2800     R  	jmp _L3
  66  0008              _L2:
  68  0008              #line 68 "e:\f12-ht66f018\adc_polling\src\main.c"
  68  0008  3725        	clr [37].6
  68  0009              _L3:
  70  0009              #line 70 "e:\f12-ht66f018\adc_polling\src\main.c"
  70  0009  340A        	clr c
  70  000A  1B80     R  	rrc _send_8bit_2[0]
  71  000B              #line 71 "e:\f12-ht66f018\adc_polling\src\main.c"
  71  000B  32A5        	set [37].5
  71  000C  1780     E  	sdz ra
  71  000D  2800     R  	jmp _L5
  71  000E  0003        	ret
  71  000F              _send_8bit endp
  71  000F              #line 71 "e:\f12-ht66f018\adc_polling\src\main.c"
  71  000F              #pragma debug scope 1 1
  71  000F              ___pa equ [20]
  71  000F              public _send_command
  71  000F              #pragma debug scope 3 1
  76  000F              #line 76 "e:\f12-ht66f018\adc_polling\src\main.c"
  76  0000              _send_command .section 'code'
  76  0000              _send_command proc
  76  0000  00              local _send_command_2 db 1 dup(?)	; 0,1
  76  0000  0080     R  	mov _send_command_2[0],a
  76  0001              #pragma debug variable 8 3 _send_command_2+0 "com"
  77  0001              #line 77 "e:\f12-ht66f018\adc_polling\src\main.c"
  77  0001  3594        	clr [20].3
  78  0002              #line 78 "e:\f12-ht66f018\adc_polling\src\main.c"
  78  0002  0700     R  	mov a,_send_command_2[0]
  78  0003  2000     R  	call _send_8bit
  79  0004              #line 79 "e:\f12-ht66f018\adc_polling\src\main.c"
  79  0004  3194        	set [20].3
  79  0005  0003        	ret
  79  0006              _send_command endp
  79  0006              #line 79 "e:\f12-ht66f018\adc_polling\src\main.c"
  79  0006              #pragma debug scope 1 1
  79  0006              public _Write_DATA
  79  0006              #pragma debug scope 4 1
  84  0006              #line 84 "e:\f12-ht66f018\adc_polling\src\main.c"
  84  0000              _Write_DATA .section 'code'
  84  0000              _Write_DATA proc
文件：main.c       编译器版本 HGASM 0202 页次3

  84  0000              public _Write_DATA_2
  84  0000  0002[           local _Write_DATA_2 db 2 dup(?)	; 1,1
            00
            ]
  84  0000  0080     R  	mov _Write_DATA_2[1],a
  84  0001              #pragma debug variable 8 4 _Write_DATA_2+1 "add"
  84  0001              #pragma debug variable 8 4 _Write_DATA_2+0 "DATA"
  85  0001              #line 85 "e:\f12-ht66f018\adc_polling\src\main.c"
  85  0001  0F44        	mov a,68
  85  0002  2000     R  	call _send_command
  86  0003              #line 86 "e:\f12-ht66f018\adc_polling\src\main.c"
  86  0003  3594        	clr [20].3
  87  0004              #line 87 "e:\f12-ht66f018\adc_polling\src\main.c"
  87  0004  0700     R  	mov a,_Write_DATA_2[1]
  87  0005  2000     R  	call _send_8bit
  88  0006              #line 88 "e:\f12-ht66f018\adc_polling\src\main.c"
  88  0006  0700     R  	mov a,_Write_DATA_2[0]
  88  0007  2000     R  	call _send_8bit
  89  0008              #line 89 "e:\f12-ht66f018\adc_polling\src\main.c"
  89  0008  3194        	set [20].3
  89  0009  0003        	ret
  89  000A              _Write_DATA endp
  89  000A              #line 89 "e:\f12-ht66f018\adc_polling\src\main.c"
  89  000A              #pragma debug scope 1 1
  89  000A              public _init_TM1628
  89  000A              #pragma debug scope 5 1
  93  000A              #line 93 "e:\f12-ht66f018\adc_polling\src\main.c"
  93  0000              _init_TM1628 .section 'code'
  93  0000              _init_TM1628 proc
  93  0000  00              local _init_TM1628_2 db 1 dup(?)	; 0,1
  95  0001              #line 95 "e:\f12-ht66f018\adc_polling\src\main.c"
  95  0000  0F03        	mov a,3
  95  0001  2000     R  	call _send_command
  96  0002              #line 96 "e:\f12-ht66f018\adc_polling\src\main.c"
  96  0002  0F8F        	mov a,143
  96  0003  2000     R  	call _send_command
  97  0004              #line 97 "e:\f12-ht66f018\adc_polling\src\main.c"
  97  0004  0F40        	mov a,64
  97  0005  2000     R  	call _send_command
  99  0006              #line 99 "e:\f12-ht66f018\adc_polling\src\main.c"
  99  0006  3594        	clr [20].3
 100  0007              #line 100 "e:\f12-ht66f018\adc_polling\src\main.c"
 100  0007  0FC0        	mov a,192
 100  0008  2000     R  	call _send_8bit
 100  0009  0F10        	mov a,16
 100  000A  0080     R  	mov _init_TM1628_2[0],a
 100  000B              _L11:
 104  000B              #line 104 "e:\f12-ht66f018\adc_polling\src\main.c"
 104  000B  0F00        	mov a,0
 104  000C  2000     R  	call _send_8bit
 104  000D  1780     R  	sdz _init_TM1628_2[0]
 104  000E  2800     R  	jmp _L11
 106  000F              #line 106 "e:\f12-ht66f018\adc_polling\src\main.c"
 106  000F  3194        	set [20].3
 106  0010  0003        	ret
 106  0011              _init_TM1628 endp
 106  0011              #line 106 "e:\f12-ht66f018\adc_polling\src\main.c"
 106  0011              #pragma debug scope 1 1
 106  0011              public _Delay_ms
 106  0011              #pragma debug scope 6 1
文件：main.c       编译器版本 HGASM 0202 页次4

 110  0011              #line 110 "e:\f12-ht66f018\adc_polling\src\main.c"
 110  0000              _Delay_ms .section 'code'
 110  0000              _Delay_ms proc
 110  0000              public _Delay_ms_2
 110  0000  0002[           local _Delay_ms_2 db 2 dup(?)	; 2,0
            00
            ]
 110  0002              #pragma debug variable 12 6 _Delay_ms_2+0 "ms"
 111  0002              #line 111 "e:\f12-ht66f018\adc_polling\src\main.c"
 111  0000  2800     R  	jmp _L13
 111  0001              _L14:
 113  0001              #line 113 "e:\f12-ht66f018\adc_polling\src\main.c"
 113  0001              ;# 113 "e:\f12-ht66f018\adc_polling\src\main.c" 1
 113  0001              	IF 2000>263690
 113  0001              ;# 113 "e:\f12-ht66f018\adc_polling\src\main.c" 1
 113  0001              	ERRMESSAGE 'the value 2000of the argument exceeds the maxinum 263690'
 113  0001              	ENDIF
 113  0001              ;# 113 "e:\f12-ht66f018\adc_polling\src\main.c" 1
 113  0001              	IF 2000<0
 113  0001              ;# 113 "e:\f12-ht66f018\adc_polling\src\main.c" 1
 113  0001              	ERRMESSAGE 'the value 2000 of the argument exceeds the mininum 0'
 113  0001              	ENDIF
 113  0001              ;# 113 "e:\f12-ht66f018\adc_polling\src\main.c" 1
 113  0001              	IF 2000==0
 113  0001              ;# 113 "e:\f12-ht66f018\adc_polling\src\main.c" 1
 113  0001              	JMP $
 113  0001              	ENDIF
 113  0001              ;# 113 "e:\f12-ht66f018\adc_polling\src\main.c" 1
 113  0001              	IF 2000==1
 113  0001              ;# 113 "e:\f12-ht66f018\adc_polling\src\main.c" 1
 113  0001              	NOP
 113  0001              	ENDIF
 113  0001              ;# 113 "e:\f12-ht66f018\adc_polling\src\main.c" 1
 113  0001              	IF 2000==2
 113  0001              ;# 113 "e:\f12-ht66f018\adc_polling\src\main.c" 1
 113  0001              	NOP
 113  0001              ;# 113 "e:\f12-ht66f018\adc_polling\src\main.c" 1
 113  0001              	NOP
 113  0001              	ENDIF
 113  0001              ;# 113 "e:\f12-ht66f018\adc_polling\src\main.c" 1
 113  0001              	IF 2000==3
 113  0001              ;# 113 "e:\f12-ht66f018\adc_polling\src\main.c" 1
 113  0001              	NOP
 113  0001              ;# 113 "e:\f12-ht66f018\adc_polling\src\main.c" 1
 113  0001              	NOP
 113  0001              ;# 113 "e:\f12-ht66f018\adc_polling\src\main.c" 1
 113  0001              	NOP
 113  0001              	ENDIF
 113  0001              ;# 113 "e:\f12-ht66f018\adc_polling\src\main.c" 1
 113  0001              	IF (2000<8) AND (2000>3)
 113  0001              ;# 113 "e:\f12-ht66f018\adc_polling\src\main.c" 1
 113  0001              	CALL __DELAY3 + 7 -2000
 113  0001              	ENDIF
 113  0001              ;# 113 "e:\f12-ht66f018\adc_polling\src\main.c" 1
 113  0001              	IF (2000< 0404h) AND (2000>7)
 113  0001              ;# 113 "e:\f12-ht66f018\adc_polling\src\main.c" 1
 113  0001              	MOV A,2000/4-1
 113  0001              ;# 113 "e:\f12-ht66f018\adc_polling\src\main.c" 1
 113  0001              	CALL __DELAYX3 + 3 -(2000 MOD 4)
 113  0001              	ENDIF
文件：main.c       编译器版本 HGASM 0202 页次5

 113  0001              ;# 113 "e:\f12-ht66f018\adc_polling\src\main.c" 1
 113  0001              	IF (2000< 0x40B) AND (2000> 0403h)
 113  0001              ;# 113 "e:\f12-ht66f018\adc_polling\src\main.c" 1
 113  0001              	MOV A,0 
 113  0001              ;# 113 "e:\f12-ht66f018\adc_polling\src\main.c" 1
 113  0001              	CALL __DELAYX6 + 0x40a -2000
 113  0001              	ENDIF
 113  0001              ;# 113 "e:\f12-ht66f018\adc_polling\src\main.c" 1
 113  0001              	IF (2000 >= 0x40b) AND ((((2000-9)%0402h)/4+1)>256)
 113  0001              ;# 113 "e:\f12-ht66f018\adc_polling\src\main.c" 1
 113  0001              	MOV A,(2000-9)/0402h
 113  0001              ;# 113 "e:\f12-ht66f018\adc_polling\src\main.c" 1
 113  0001              	MOV _builtin_holtek_delay_2,A
 113  0001              ;# 113 "e:\f12-ht66f018\adc_polling\src\main.c" 1
 113  0001              	MOV A,0
 113  0001              ;# 113 "e:\f12-ht66f018\adc_polling\src\main.c" 1
 113  0001              	CALL __DELAYY5 +5- (((2000-9)%0402h)%6)
 113  0001              	ENDIF
 113  0001              ;# 113 "e:\f12-ht66f018\adc_polling\src\main.c" 1
 113  0001              	IF (2000 >= 0x40b) AND ((((2000-9)%0402h)/4+1)<=256)
 113  0001              ;# 113 "e:\f12-ht66f018\adc_polling\src\main.c" 1
 113  0001  0F01        	MOV A,(2000-9)/0402h
 113  0002              ;# 113 "e:\f12-ht66f018\adc_polling\src\main.c" 1
 113  0002  0080     E  	MOV _builtin_holtek_delay_2,A
 113  0003              ;# 113 "e:\f12-ht66f018\adc_polling\src\main.c" 1
 113  0003  0FF2        	MOV A,((2000-9)%0402h)/4+1
 113  0004              ;# 113 "e:\f12-ht66f018\adc_polling\src\main.c" 1
 113  0004  2000     E  	CALL __DELAYY3 +3-(((2000-9)%0402h)%4)
 113  0005              	ENDIF
 113  0005              _L13:
 111  0005              #line 111 "e:\f12-ht66f018\adc_polling\src\main.c"
 111  0005  0FFF        	mov a,255
 111  0006  0380     R  	addm a,_Delay_ms_2[0]
 111  0007  0FFF        	mov a,255
 111  0008  1380     R  	adcm a,_Delay_ms_2[1]
 111  0009  0700     R  	mov a,_Delay_ms_2[0]
 111  000A  0600     R  	and a,_Delay_ms_2[1]
 111  000B  0B01        	add a,1
 111  000C  380A        	snz c
 111  000D  2800     R  	jmp _L14
 111  000E  0003        	ret
 111  000F              _Delay_ms endp
 111  000F              #line 111 "e:\f12-ht66f018\adc_polling\src\main.c"
 111  000F              #pragma debug scope 1 1
 111  000F              ___pac equ [21]
 111  000F              ___papu equ [22]
 111  000F              public _GPIOA_INIT
 111  000F              #pragma debug scope 7 1
 120  000F              #line 120 "e:\f12-ht66f018\adc_polling\src\main.c"
 120  0000              _GPIOA_INIT .section 'code'
 120  0000              _GPIOA_INIT proc
 120  0000              public _GPIOA_INIT_2
 120  0000  0004[           local _GPIOA_INIT_2 db 4 dup(?)	; 3,1
            00
            ]
 120  0000  0080     R  	mov _GPIOA_INIT_2[3],a
 120  0001              #pragma debug variable 8 7 _GPIOA_INIT_2+3 "GPIO_Pin"
 120  0001              #pragma debug variable 8 7 _GPIOA_INIT_2+0 "GPIO_Mode"
 120  0001              #pragma debug variable 8 7 _GPIOA_INIT_2+1 "wakeup"
 120  0001              #pragma debug variable 8 7 _GPIOA_INIT_2+2 "GPIO_BitVal"
文件：main.c       编译器版本 HGASM 0202 页次6

 121  0001              #line 121 "e:\f12-ht66f018\adc_polling\src\main.c"
 121  0001  1700     R  	sdza _GPIOA_INIT_2[0]
 121  0002  2800     R  	jmp _L16
 123  0003              #line 123 "e:\f12-ht66f018\adc_polling\src\main.c"
 123  0003  0700     R  	mov a,_GPIOA_INIT_2[3]
 123  0004  0595        	orm a,[21]
 124  0005              #line 124 "e:\f12-ht66f018\adc_polling\src\main.c"
 124  0005  0700     R  	mov a,_GPIOA_INIT_2[3]
 124  0006  0596        	orm a,[22]
 124  0007  2800     R  	jmp _L17
 124  0008              _L16:
 128  0008              #line 128 "e:\f12-ht66f018\adc_polling\src\main.c"
 128  0008  0100     R  	cpla _GPIOA_INIT_2[3]
 128  0009  0080     E  	mov ra,a
 128  000A  0700     E  	mov a,ra
 128  000B  0695        	andm a,[21]
 129  000C              #line 129 "e:\f12-ht66f018\adc_polling\src\main.c"
 129  000C  0700     E  	mov a,ra
 129  000D  0696        	andm a,[22]
 129  000E              _L17:
 132  000E              #line 132 "e:\f12-ht66f018\adc_polling\src\main.c"
 132  000E  1080     R  	sz _GPIOA_INIT_2[2]
 132  000F  2800     R  	jmp _LI1
 132  0010  2800     R  	jmp _L18
 132  0011              _LI1:
 134  0011              #line 134 "e:\f12-ht66f018\adc_polling\src\main.c"
 134  0011  0700     R  	mov a,_GPIOA_INIT_2[3]
 134  0012  0594        	orm a,[20]
 134  0013  2800     R  	jmp _L15
 134  0014              _L18:
 138  0014              #line 138 "e:\f12-ht66f018\adc_polling\src\main.c"
 138  0014  0100     R  	cpla _GPIOA_INIT_2[3]
 138  0015  0080     E  	mov ra,a
 138  0016  0700     E  	mov a,ra
 138  0017  0694        	andm a,[20]
 138  0018              _L15:
 138  0018  0003        	ret
 138  0019              _GPIOA_INIT endp
 138  0019              #line 138 "e:\f12-ht66f018\adc_polling\src\main.c"
 138  0019              #pragma debug scope 1 1
 138  0019              ___pbc equ [38]
 138  0019              ___pbpu equ [39]
 138  0019              public _GPIOB_INIT
 138  0019              #pragma debug scope 8 1
 144  0019              #line 144 "e:\f12-ht66f018\adc_polling\src\main.c"
 144  0000              _GPIOB_INIT .section 'code'
 144  0000              _GPIOB_INIT proc
 144  0000              public _GPIOB_INIT_2
 144  0000  0003[           local _GPIOB_INIT_2 db 3 dup(?)	; 2,1
            00
            ]
 144  0000  0080     R  	mov _GPIOB_INIT_2[2],a
 144  0001              #pragma debug variable 8 8 _GPIOB_INIT_2+2 "GPIO_Pin"
 144  0001              #pragma debug variable 8 8 _GPIOB_INIT_2+0 "GPIO_Mode"
 144  0001              #pragma debug variable 8 8 _GPIOB_INIT_2+1 "GPIO_BitVal"
 146  0001              #line 146 "e:\f12-ht66f018\adc_polling\src\main.c"
 146  0001  1700     R  	sdza _GPIOB_INIT_2[0]
 146  0002  2800     R  	jmp _L21
 148  0003              #line 148 "e:\f12-ht66f018\adc_polling\src\main.c"
 148  0003  0700     R  	mov a,_GPIOB_INIT_2[2]
文件：main.c       编译器版本 HGASM 0202 页次7

 148  0004  05A6        	orm a,[38]
 149  0005              #line 149 "e:\f12-ht66f018\adc_polling\src\main.c"
 149  0005  0700     R  	mov a,_GPIOB_INIT_2[2]
 149  0006  05A7        	orm a,[39]
 149  0007  2800     R  	jmp _L22
 149  0008              _L21:
 153  0008              #line 153 "e:\f12-ht66f018\adc_polling\src\main.c"
 153  0008  0100     R  	cpla _GPIOB_INIT_2[2]
 153  0009  0080     E  	mov ra,a
 153  000A  0700     E  	mov a,ra
 153  000B  06A6        	andm a,[38]
 154  000C              #line 154 "e:\f12-ht66f018\adc_polling\src\main.c"
 154  000C  0700     E  	mov a,ra
 154  000D  06A7        	andm a,[39]
 154  000E              _L22:
 157  000E              #line 157 "e:\f12-ht66f018\adc_polling\src\main.c"
 157  000E  1080     R  	sz _GPIOB_INIT_2[1]
 157  000F  2800     R  	jmp _LI2
 157  0010  2800     R  	jmp _L23
 157  0011              _LI2:
 159  0011              #line 159 "e:\f12-ht66f018\adc_polling\src\main.c"
 159  0011  0700     R  	mov a,_GPIOB_INIT_2[2]
 159  0012  05A5        	orm a,[37]
 159  0013  2800     R  	jmp _L20
 159  0014              _L23:
 163  0014              #line 163 "e:\f12-ht66f018\adc_polling\src\main.c"
 163  0014  0100     R  	cpla _GPIOB_INIT_2[2]
 163  0015  0080     E  	mov ra,a
 163  0016  0700     E  	mov a,ra
 163  0017  06A5        	andm a,[37]
 163  0018              _L20:
 163  0018  0003        	ret
 163  0019              _GPIOB_INIT endp
 163  0019              #line 163 "e:\f12-ht66f018\adc_polling\src\main.c"
 163  0019              #pragma debug scope 1 1
 163  0019              ___pcc equ [65]
 163  0019              ___pcpu equ [66]
 163  0019              ___pc equ [64]
 163  0019              public _GPIOC_INIT
 163  0019              #pragma debug scope 9 1
 168  0019              #line 168 "e:\f12-ht66f018\adc_polling\src\main.c"
 168  0000              _GPIOC_INIT .section 'code'
 168  0000              _GPIOC_INIT proc
 168  0000              public _GPIOC_INIT_2
 168  0000  0003[           local _GPIOC_INIT_2 db 3 dup(?)	; 2,1
            00
            ]
 168  0000  0080     R  	mov _GPIOC_INIT_2[2],a
 168  0001              #pragma debug variable 8 9 _GPIOC_INIT_2+2 "GPIO_Pin"
 168  0001              #pragma debug variable 8 9 _GPIOC_INIT_2+0 "GPIO_Mode"
 168  0001              #pragma debug variable 8 9 _GPIOC_INIT_2+1 "GPIO_BitVal"
 170  0001              #line 170 "e:\f12-ht66f018\adc_polling\src\main.c"
 170  0001  1700     R  	sdza _GPIOC_INIT_2[0]
 170  0002  2800     R  	jmp _L26
 172  0003              #line 172 "e:\f12-ht66f018\adc_polling\src\main.c"
 172  0003  0700     R  	mov a,_GPIOC_INIT_2[2]
 172  0004  05C1        	orm a,[65]
 173  0005              #line 173 "e:\f12-ht66f018\adc_polling\src\main.c"
 173  0005  0700     R  	mov a,_GPIOC_INIT_2[2]
 173  0006  05C2        	orm a,[66]
文件：main.c       编译器版本 HGASM 0202 页次8

 173  0007  2800     R  	jmp _L27
 173  0008              _L26:
 177  0008              #line 177 "e:\f12-ht66f018\adc_polling\src\main.c"
 177  0008  0100     R  	cpla _GPIOC_INIT_2[2]
 177  0009  0080     E  	mov ra,a
 177  000A  0700     E  	mov a,ra
 177  000B  06C1        	andm a,[65]
 178  000C              #line 178 "e:\f12-ht66f018\adc_polling\src\main.c"
 178  000C  0700     E  	mov a,ra
 178  000D  06C2        	andm a,[66]
 178  000E              _L27:
 181  000E              #line 181 "e:\f12-ht66f018\adc_polling\src\main.c"
 181  000E  1080     R  	sz _GPIOC_INIT_2[1]
 181  000F  2800     R  	jmp _LI3
 181  0010  2800     R  	jmp _L28
 181  0011              _LI3:
 183  0011              #line 183 "e:\f12-ht66f018\adc_polling\src\main.c"
 183  0011  0700     R  	mov a,_GPIOC_INIT_2[2]
 183  0012  05C0        	orm a,[64]
 183  0013  2800     R  	jmp _L25
 183  0014              _L28:
 183  0014              #pragma debug scope 10 9
 183  0014              ;begin block, line: 183.-1
 183  0014              #pragma debug scope 11 10
 183  0014              ;begin block, line: 183.-1
 187  0014              #line 187 "e:\f12-ht66f018\adc_polling\src\main.c"
 187  0014  0100     R  	cpla _GPIOC_INIT_2[2]
 187  0015  0080     E  	mov ra,a
 187  0016  0700     E  	mov a,ra
 187  0017  06C0        	andm a,[64]
 187  0018              _L25:
 187  0018              #pragma debug scope 10 9
 187  0018              #pragma debug scope 9 1
 187  0018  0003        	ret
 187  0019              _GPIOC_INIT endp
 187  0019              #line 187 "e:\f12-ht66f018\adc_polling\src\main.c"
 187  0019              #pragma debug scope 1 1
 187  0019              ___bp equ [4]
 187  0019              ___mp1 equ [3]
 187  0019              ___iar1 equ [2]
 187  0019              public _clr_ram_en
 187  0019              #pragma debug scope 12 1
 194  0019              #line 194 "e:\f12-ht66f018\adc_polling\src\main.c"
 194  0000              _clr_ram_en .section 'code'
 194  0000              _clr_ram_en proc
 194  0000  00              local _clr_ram_en_2 db 1 dup(?)	; 0,1
 194  0000  0080     E  	mov ra,a
 194  0001  0080     R  	mov _clr_ram_en_2[0],a
 194  0002              #pragma debug variable 8 12 _clr_ram_en_2+0 "t"
 195  0002              #line 195 "e:\f12-ht66f018\adc_polling\src\main.c"
 195  0002  0F01        	mov a,1
 195  0003  0680     E  	andm a,ra
 195  0004  3404        	clr [4].0
 195  0005  0700     E  	mov a,ra
 195  0006  0584        	orm a,[4]
 196  0007              #line 196 "e:\f12-ht66f018\adc_polling\src\main.c"
 196  0007  0F80        	mov a,128
 196  0008  0083        	mov [3],a
 197  0009              #line 197 "e:\f12-ht66f018\adc_polling\src\main.c"
 197  0009  2800     R  	jmp _L31
文件：main.c       编译器版本 HGASM 0202 页次9

 197  000A              _L32:
 199  000A              #line 199 "e:\f12-ht66f018\adc_polling\src\main.c"
 199  000A  1F02        	clr [2]
 200  000B              #line 200 "e:\f12-ht66f018\adc_polling\src\main.c"
 200  000B  1483        	inc [3]
 200  000C              _L31:
 197  000C              #line 197 "e:\f12-ht66f018\adc_polling\src\main.c"
 197  000C  1083        	sz [3]
 197  000D  2800     R  	jmp _L32
 197  000E  0003        	ret
 197  000F              _clr_ram_en endp
 197  000F              #line 197 "e:\f12-ht66f018\adc_polling\src\main.c"
 197  000F              #pragma debug scope 1 1
 197  000F              ___smod equ [11]
 197  000F              ___wdtc equ [26]
 197  000F              ___acerl equ [36]
 197  000F              ___tmpc equ [25]
 197  000F              ___cpc equ [62]
 197  000F              ___integ equ [13]
 197  000F              ___intc0 equ [14]
 197  000F              ___tm0c0 equ [47]
 197  000F              ___tm0c1 equ [48]
 197  000F              ___tm0al equ [51]
 197  000F              ___tm0ah equ [52]
 197  000F              ___mfi0 equ [17]
 197  000F              public _Init_clock
 197  000F              #pragma debug scope 13 1
 205  000F              #line 205 "e:\f12-ht66f018\adc_polling\src\main.c"
 205  0000              _Init_clock .section 'code'
 205  0000              _Init_clock proc
 206  0000              #line 206 "e:\f12-ht66f018\adc_polling\src\main.c"
 206  0000  0F01        	mov a,1
 206  0001  008B        	mov [11],a
 206  0002              _L35:
 207  0002              #line 207 "e:\f12-ht66f018\adc_polling\src\main.c"
 207  0002  390B        	snz [11].2
 207  0003  2800     R  	jmp _L35
 208  0004              #line 208 "e:\f12-ht66f018\adc_polling\src\main.c"
 208  0004  0F57        	mov a,87
 208  0005  009A        	mov [26],a
 209  0006              #line 209 "e:\f12-ht66f018\adc_polling\src\main.c"
 209  0006  1F24        	clr [36]
 210  0007              #line 210 "e:\f12-ht66f018\adc_polling\src\main.c"
 210  0007  1F19        	clr [25]
 211  0008              #line 211 "e:\f12-ht66f018\adc_polling\src\main.c"
 211  0008  0F08        	mov a,8
 211  0009  00BE        	mov [62],a
 212  000A              #line 212 "e:\f12-ht66f018\adc_polling\src\main.c"
 212  000A  1F0D        	clr [13]
 213  000B              #line 213 "e:\f12-ht66f018\adc_polling\src\main.c"
 213  000B  348E        	clr [14].1
 214  000C              #line 214 "e:\f12-ht66f018\adc_polling\src\main.c"
 214  000C  340E        	clr [14].0
 217  000D              #line 217 "e:\f12-ht66f018\adc_polling\src\main.c"
 217  000D  1F2F        	clr [47]
 218  000E              #line 218 "e:\f12-ht66f018\adc_polling\src\main.c"
 218  000E  0FC1        	mov a,193
 218  000F  00B0        	mov [48],a
 219  0010              #line 219 "e:\f12-ht66f018\adc_polling\src\main.c"
 219  0010  0F20        	mov a,32
文件：main.c       编译器版本 HGASM 0202 页次10

 219  0011  00B3        	mov [51],a
 220  0012              #line 220 "e:\f12-ht66f018\adc_polling\src\main.c"
 220  0012  0F4E        	mov a,78
 220  0013  00B4        	mov [52],a
 221  0014              #line 221 "e:\f12-ht66f018\adc_polling\src\main.c"
 221  0014  3691        	clr [17].5
 222  0015              #line 222 "e:\f12-ht66f018\adc_polling\src\main.c"
 222  0015  31AF        	set [47].3
 223  0016              #line 223 "e:\f12-ht66f018\adc_polling\src\main.c"
 223  0016  318E        	set [14].3
 224  0017              #line 224 "e:\f12-ht66f018\adc_polling\src\main.c"
 224  0017  3091        	set [17].1
 230  0018              #line 230 "e:\f12-ht66f018\adc_polling\src\main.c"
 230  0018  300E        	set [14].0
 232  0019              #line 232 "e:\f12-ht66f018\adc_polling\src\main.c"
 232  0019              ;# 232 "e:\f12-ht66f018\adc_polling\src\main.c" 1
 232  0019  0001        	clr wdt
 233  001A              #line 233 "e:\f12-ht66f018\adc_polling\src\main.c"
 233  001A  0F00        	mov a,0
 233  001B  2000     R  	call _clr_ram_en
 234  001C              #line 234 "e:\f12-ht66f018\adc_polling\src\main.c"
 234  001C  0F01        	mov a,1
 234  001D  2000     R  	call _clr_ram_en
 234  001E  0003        	ret
 234  001F              _Init_clock endp
 234  001F              #line 234 "e:\f12-ht66f018\adc_polling\src\main.c"
 234  001F              #pragma debug scope 1 1
 234  001F              ___adcr0 equ [34]
 234  001F              public _get_key_state
 234  001F              #pragma debug scope 14 1
 303  001F              #line 303 "e:\f12-ht66f018\adc_polling\src\main.c"
 303  0000              _get_key_state .section 'code'
 303  0000              _get_key_state proc
 306  0000              #line 306 "e:\f12-ht66f018\adc_polling\src\main.c"
 306  0000  36A2        	clr [34].5
 307  0001              #line 307 "e:\f12-ht66f018\adc_polling\src\main.c"
 307  0001  0F00        	mov a,0
 307  0002  2000     E  	call _ADC_GetChannelValue
 359  0003              #line 359 "e:\f12-ht66f018\adc_polling\src\main.c"
 359  0003  0F00        	mov a,0
 359  0004  0003        	ret
 359  0005              _get_key_state endp
 359  0005              #line 359 "e:\f12-ht66f018\adc_polling\src\main.c"
 359  0005              #pragma debug scope 1 1
 359  0005              public _key_scan
 359  0005              #pragma debug scope 15 1
 372  0005              #line 372 "e:\f12-ht66f018\adc_polling\src\main.c"
 372  0000              _key_scan .section 'code'
 372  0000              _key_scan proc
 372  0000  00              local _key_scan_2 db 1 dup(?)	; 0,1
 372  0001              #pragma debug variable 8 15 _key_scan_2+0 "cur_key"
 375  0001              #line 375 "e:\f12-ht66f018\adc_polling\src\main.c"
 375  0000  2000     R  	call _get_key_state
 375  0001  0080     R  	mov _key_scan_2[0],a
 377  0002              #line 377 "e:\f12-ht66f018\adc_polling\src\main.c"
 377  0002  0700     R  	mov a,_play_key_tick[0]
 377  0003  0080     E  	mov rd,a
 377  0004  0700     R  	mov a,_play_key_tick[1]
 377  0005  0080     E  	mov re,a
 377  0006  0F01        	mov a,1
文件：main.c       编译器版本 HGASM 0202 页次11

 377  0007  0300     E  	add a,rd
 377  0008  0080     E  	mov rb,a
 377  0009  0F00        	mov a,0
 377  000A  1300     E  	adc a,re
 377  000B  0080     E  	mov rc,a
 377  000C  0700     E  	mov a,rb
 377  000D  0080     R  	mov _play_key_tick[0],a
 377  000E  0700     E  	mov a,rc
 377  000F  0080     R  	mov _play_key_tick[1],a
 378  0010              #line 378 "e:\f12-ht66f018\adc_polling\src\main.c"
 378  0010  0700     R  	mov a,_key_scan_2[0]
 378  0011  0A40        	sub a,64
 378  0012  390A        	snz z
 378  0013  2800     R  	jmp _L38
 380  0014              #line 380 "e:\f12-ht66f018\adc_polling\src\main.c"
 380  0014  0700     E  	mov a,rb
 380  0015  0C2C        	xor a,44
 380  0016  0700     E  	mov a,rc
 380  0017  3D0A        	sz z
 380  0018  0C01        	xor a,1
 380  0019  390A        	snz z
 380  001A  2800     R  	jmp _L39
 382  001B              #line 382 "e:\f12-ht66f018\adc_polling\src\main.c"
 382  001B  0F0E        	mov a,14
 382  001C  0080     R  	mov _key_flag_1[0],a
 382  001D  2800     R  	jmp _L39
 382  001E              _L38:
 385  001E              #line 385 "e:\f12-ht66f018\adc_polling\src\main.c"
 385  001E  1080     R  	sz _key_scan_2[0]
 385  001F  2800     R  	jmp _L39
 387  0020              #line 387 "e:\f12-ht66f018\adc_polling\src\main.c"
 387  0020  0F63        	mov a,99
 387  0021  0200     E  	sub a,rd
 387  0022  0F00        	mov a,0
 387  0023  1200     E  	sbc a,re
 387  0024  380A        	snz c
 387  0025  2800     R  	jmp _L40
 389  0026              #line 389 "e:\f12-ht66f018\adc_polling\src\main.c"
 389  0026  0F07        	mov a,7
 389  0027  0080     R  	mov _key_flag_1[0],a
 389  0028  2800     R  	jmp _L41
 389  0029              _L40:
 391  0029              #line 391 "e:\f12-ht66f018\adc_polling\src\main.c"
 391  0029  0F2C        	mov a,44
 391  002A  0200     E  	sub a,rb
 391  002B  0F01        	mov a,1
 391  002C  1200     E  	sbc a,rc
 391  002D  3C0A        	sz c
 391  002E  2800     R  	jmp _L41
 393  002F              #line 393 "e:\f12-ht66f018\adc_polling\src\main.c"
 393  002F  0F15        	mov a,21
 393  0030  0080     R  	mov _key_flag_1[0],a
 393  0031              _L41:
 395  0031              #line 395 "e:\f12-ht66f018\adc_polling\src\main.c"
 395  0031  1F00     R  	clr _play_key_tick[0]
 395  0032  1F00     R  	clr _play_key_tick[1]
 395  0033              _L39:
 398  0033              #line 398 "e:\f12-ht66f018\adc_polling\src\main.c"
 398  0033  0700     R  	mov a,_record_key_tick[0]
 398  0034  0080     E  	mov rd,a
文件：main.c       编译器版本 HGASM 0202 页次12

 398  0035  0700     R  	mov a,_record_key_tick[1]
 398  0036  0080     E  	mov re,a
 398  0037  0F01        	mov a,1
 398  0038  0300     E  	add a,rd
 398  0039  0080     E  	mov rb,a
 398  003A  0F00        	mov a,0
 398  003B  1300     E  	adc a,re
 398  003C  0080     E  	mov rc,a
 398  003D  0700     E  	mov a,rb
 398  003E  0080     R  	mov _record_key_tick[0],a
 398  003F  0700     E  	mov a,rc
 398  0040  0080     R  	mov _record_key_tick[1],a
 399  0041              #line 399 "e:\f12-ht66f018\adc_polling\src\main.c"
 399  0041  0700     R  	mov a,_key_scan_2[0]
 399  0042  0A20        	sub a,32
 399  0043  390A        	snz z
 399  0044  2800     R  	jmp _L42
 401  0045              #line 401 "e:\f12-ht66f018\adc_polling\src\main.c"
 401  0045  0700     E  	mov a,rb
 401  0046  0C2C        	xor a,44
 401  0047  0700     E  	mov a,rc
 401  0048  3D0A        	sz z
 401  0049  0C01        	xor a,1
 401  004A  390A        	snz z
 401  004B  2800     R  	jmp _L43
 403  004C              #line 403 "e:\f12-ht66f018\adc_polling\src\main.c"
 403  004C  0F0D        	mov a,13
 403  004D  0080     R  	mov _key_flag_1[0],a
 403  004E  2800     R  	jmp _L43
 403  004F              _L42:
 406  004F              #line 406 "e:\f12-ht66f018\adc_polling\src\main.c"
 406  004F  1080     R  	sz _key_scan_2[0]
 406  0050  2800     R  	jmp _L43
 408  0051              #line 408 "e:\f12-ht66f018\adc_polling\src\main.c"
 408  0051  0F63        	mov a,99
 408  0052  0200     E  	sub a,rd
 408  0053  0F00        	mov a,0
 408  0054  1200     E  	sbc a,re
 408  0055  380A        	snz c
 408  0056  2800     R  	jmp _L44
 410  0057              #line 410 "e:\f12-ht66f018\adc_polling\src\main.c"
 410  0057  0F06        	mov a,6
 410  0058  0080     R  	mov _key_flag_1[0],a
 410  0059  2800     R  	jmp _L45
 410  005A              _L44:
 412  005A              #line 412 "e:\f12-ht66f018\adc_polling\src\main.c"
 412  005A  0F2C        	mov a,44
 412  005B  0200     E  	sub a,rb
 412  005C  0F01        	mov a,1
 412  005D  1200     E  	sbc a,rc
 412  005E  3C0A        	sz c
 412  005F  2800     R  	jmp _L45
 414  0060              #line 414 "e:\f12-ht66f018\adc_polling\src\main.c"
 414  0060  0F14        	mov a,20
 414  0061  0080     R  	mov _key_flag_1[0],a
 414  0062              _L45:
 416  0062              #line 416 "e:\f12-ht66f018\adc_polling\src\main.c"
 416  0062  1F00     R  	clr _record_key_tick[0]
 416  0063  1F00     R  	clr _record_key_tick[1]
 416  0064              _L43:
文件：main.c       编译器版本 HGASM 0202 页次13

 419  0064              #line 419 "e:\f12-ht66f018\adc_polling\src\main.c"
 419  0064  0700     R  	mov a,_feed_key_tick[0]
 419  0065  0080     E  	mov rd,a
 419  0066  0700     R  	mov a,_feed_key_tick[1]
 419  0067  0080     E  	mov re,a
 419  0068  0F01        	mov a,1
 419  0069  0300     E  	add a,rd
 419  006A  0080     E  	mov rb,a
 419  006B  0F00        	mov a,0
 419  006C  1300     E  	adc a,re
 419  006D  0080     E  	mov rc,a
 419  006E  0700     E  	mov a,rb
 419  006F  0080     R  	mov _feed_key_tick[0],a
 419  0070  0700     E  	mov a,rc
 419  0071  0080     R  	mov _feed_key_tick[1],a
 420  0072              #line 420 "e:\f12-ht66f018\adc_polling\src\main.c"
 420  0072  0700     R  	mov a,_key_scan_2[0]
 420  0073  0A10        	sub a,16
 420  0074  390A        	snz z
 420  0075  2800     R  	jmp _L46
 422  0076              #line 422 "e:\f12-ht66f018\adc_polling\src\main.c"
 422  0076  0700     E  	mov a,rb
 422  0077  0C2C        	xor a,44
 422  0078  0700     E  	mov a,rc
 422  0079  3D0A        	sz z
 422  007A  0C01        	xor a,1
 422  007B  390A        	snz z
 422  007C  2800     R  	jmp _L47
 424  007D              #line 424 "e:\f12-ht66f018\adc_polling\src\main.c"
 424  007D  0F0C        	mov a,12
 424  007E  0080     R  	mov _key_flag_1[0],a
 424  007F  2800     R  	jmp _L47
 424  0080              _L46:
 427  0080              #line 427 "e:\f12-ht66f018\adc_polling\src\main.c"
 427  0080  1080     R  	sz _key_scan_2[0]
 427  0081  2800     R  	jmp _L47
 429  0082              #line 429 "e:\f12-ht66f018\adc_polling\src\main.c"
 429  0082  0F63        	mov a,99
 429  0083  0200     E  	sub a,rd
 429  0084  0F00        	mov a,0
 429  0085  1200     E  	sbc a,re
 429  0086  380A        	snz c
 429  0087  2800     R  	jmp _L48
 431  0088              #line 431 "e:\f12-ht66f018\adc_polling\src\main.c"
 431  0088  0F05        	mov a,5
 431  0089  0080     R  	mov _key_flag_1[0],a
 431  008A  2800     R  	jmp _L49
 431  008B              _L48:
 433  008B              #line 433 "e:\f12-ht66f018\adc_polling\src\main.c"
 433  008B  0F2C        	mov a,44
 433  008C  0200     E  	sub a,rb
 433  008D  0F01        	mov a,1
 433  008E  1200     E  	sbc a,rc
 433  008F  3C0A        	sz c
 433  0090  2800     R  	jmp _L49
 435  0091              #line 435 "e:\f12-ht66f018\adc_polling\src\main.c"
 435  0091  0F13        	mov a,19
 435  0092  0080     R  	mov _key_flag_1[0],a
 435  0093              _L49:
 437  0093              #line 437 "e:\f12-ht66f018\adc_polling\src\main.c"
文件：main.c       编译器版本 HGASM 0202 页次14

 437  0093  1F00     R  	clr _feed_key_tick[0]
 437  0094  1F00     R  	clr _feed_key_tick[1]
 437  0095              _L47:
 440  0095              #line 440 "e:\f12-ht66f018\adc_polling\src\main.c"
 440  0095  0700     R  	mov a,_time_key_tick[0]
 440  0096  0080     E  	mov rd,a
 440  0097  0700     R  	mov a,_time_key_tick[1]
 440  0098  0080     E  	mov re,a
 440  0099  0F01        	mov a,1
 440  009A  0300     E  	add a,rd
 440  009B  0080     E  	mov rb,a
 440  009C  0F00        	mov a,0
 440  009D  1300     E  	adc a,re
 440  009E  0080     E  	mov rc,a
 440  009F  0700     E  	mov a,rb
 440  00A0  0080     R  	mov _time_key_tick[0],a
 440  00A1  0700     E  	mov a,rc
 440  00A2  0080     R  	mov _time_key_tick[1],a
 441  00A3              #line 441 "e:\f12-ht66f018\adc_polling\src\main.c"
 441  00A3  0700     R  	mov a,_key_scan_2[0]
 441  00A4  0A08        	sub a,8
 441  00A5  390A        	snz z
 441  00A6  2800     R  	jmp _L50
 443  00A7              #line 443 "e:\f12-ht66f018\adc_polling\src\main.c"
 443  00A7  0700     E  	mov a,rb
 443  00A8  0C2C        	xor a,44
 443  00A9  0700     E  	mov a,rc
 443  00AA  3D0A        	sz z
 443  00AB  0C01        	xor a,1
 443  00AC  390A        	snz z
 443  00AD  2800     R  	jmp _L51
 445  00AE              #line 445 "e:\f12-ht66f018\adc_polling\src\main.c"
 445  00AE  0F0B        	mov a,11
 445  00AF  0080     R  	mov _key_flag_1[0],a
 445  00B0  2800     R  	jmp _L51
 445  00B1              _L50:
 448  00B1              #line 448 "e:\f12-ht66f018\adc_polling\src\main.c"
 448  00B1  1080     R  	sz _key_scan_2[0]
 448  00B2  2800     R  	jmp _L51
 450  00B3              #line 450 "e:\f12-ht66f018\adc_polling\src\main.c"
 450  00B3  0F63        	mov a,99
 450  00B4  0200     E  	sub a,rd
 450  00B5  0F00        	mov a,0
 450  00B6  1200     E  	sbc a,re
 450  00B7  380A        	snz c
 450  00B8  2800     R  	jmp _L52
 452  00B9              #line 452 "e:\f12-ht66f018\adc_polling\src\main.c"
 452  00B9  0F04        	mov a,4
 452  00BA  0080     R  	mov _key_flag_1[0],a
 452  00BB  2800     R  	jmp _L53
 452  00BC              _L52:
 454  00BC              #line 454 "e:\f12-ht66f018\adc_polling\src\main.c"
 454  00BC  0F2C        	mov a,44
 454  00BD  0200     E  	sub a,rb
 454  00BE  0F01        	mov a,1
 454  00BF  1200     E  	sbc a,rc
 454  00C0  3C0A        	sz c
 454  00C1  2800     R  	jmp _L53
 456  00C2              #line 456 "e:\f12-ht66f018\adc_polling\src\main.c"
 456  00C2  0F12        	mov a,18
文件：main.c       编译器版本 HGASM 0202 页次15

 456  00C3  0080     R  	mov _key_flag_1[0],a
 456  00C4              _L53:
 458  00C4              #line 458 "e:\f12-ht66f018\adc_polling\src\main.c"
 458  00C4  1F00     R  	clr _time_key_tick[0]
 458  00C5  1F00     R  	clr _time_key_tick[1]
 458  00C6              _L51:
 461  00C6              #line 461 "e:\f12-ht66f018\adc_polling\src\main.c"
 461  00C6  0700     R  	mov a,_set_key_tick[0]
 461  00C7  0080     E  	mov rd,a
 461  00C8  0700     R  	mov a,_set_key_tick[1]
 461  00C9  0080     E  	mov re,a
 461  00CA  0F01        	mov a,1
 461  00CB  0300     E  	add a,rd
 461  00CC  0080     E  	mov rb,a
 461  00CD  0F00        	mov a,0
 461  00CE  1300     E  	adc a,re
 461  00CF  0080     E  	mov rc,a
 461  00D0  0700     E  	mov a,rb
 461  00D1  0080     R  	mov _set_key_tick[0],a
 461  00D2  0700     E  	mov a,rc
 461  00D3  0080     R  	mov _set_key_tick[1],a
 462  00D4              #line 462 "e:\f12-ht66f018\adc_polling\src\main.c"
 462  00D4  0700     R  	mov a,_key_scan_2[0]
 462  00D5  0A04        	sub a,4
 462  00D6  390A        	snz z
 462  00D7  2800     R  	jmp _L54
 464  00D8              #line 464 "e:\f12-ht66f018\adc_polling\src\main.c"
 464  00D8  0700     E  	mov a,rb
 464  00D9  0C2C        	xor a,44
 464  00DA  0700     E  	mov a,rc
 464  00DB  3D0A        	sz z
 464  00DC  0C01        	xor a,1
 464  00DD  390A        	snz z
 464  00DE  2800     R  	jmp _L55
 466  00DF              #line 466 "e:\f12-ht66f018\adc_polling\src\main.c"
 466  00DF  0F0A        	mov a,10
 466  00E0  0080     R  	mov _key_flag_1[0],a
 466  00E1  2800     R  	jmp _L55
 466  00E2              _L54:
 469  00E2              #line 469 "e:\f12-ht66f018\adc_polling\src\main.c"
 469  00E2  1080     R  	sz _key_scan_2[0]
 469  00E3  2800     R  	jmp _L55
 471  00E4              #line 471 "e:\f12-ht66f018\adc_polling\src\main.c"
 471  00E4  0F63        	mov a,99
 471  00E5  0200     E  	sub a,rd
 471  00E6  0F00        	mov a,0
 471  00E7  1200     E  	sbc a,re
 471  00E8  380A        	snz c
 471  00E9  2800     R  	jmp _L56
 473  00EA              #line 473 "e:\f12-ht66f018\adc_polling\src\main.c"
 473  00EA  0F03        	mov a,3
 473  00EB  0080     R  	mov _key_flag_1[0],a
 473  00EC  2800     R  	jmp _L57
 473  00ED              _L56:
 475  00ED              #line 475 "e:\f12-ht66f018\adc_polling\src\main.c"
 475  00ED  0F2C        	mov a,44
 475  00EE  0200     E  	sub a,rb
 475  00EF  0F01        	mov a,1
 475  00F0  1200     E  	sbc a,rc
 475  00F1  3C0A        	sz c
文件：main.c       编译器版本 HGASM 0202 页次16

 475  00F2  2800     R  	jmp _L57
 477  00F3              #line 477 "e:\f12-ht66f018\adc_polling\src\main.c"
 477  00F3  0F11        	mov a,17
 477  00F4  0080     R  	mov _key_flag_1[0],a
 477  00F5              _L57:
 479  00F5              #line 479 "e:\f12-ht66f018\adc_polling\src\main.c"
 479  00F5  1F00     R  	clr _set_key_tick[0]
 479  00F6  1F00     R  	clr _set_key_tick[1]
 479  00F7              _L55:
 482  00F7              #line 482 "e:\f12-ht66f018\adc_polling\src\main.c"
 482  00F7  0700     R  	mov a,_down_key_tick[0]
 482  00F8  0080     E  	mov rd,a
 482  00F9  0700     R  	mov a,_down_key_tick[1]
 482  00FA  0080     E  	mov re,a
 482  00FB  0F01        	mov a,1
 482  00FC  0300     E  	add a,rd
 482  00FD  0080     E  	mov rb,a
 482  00FE  0F00        	mov a,0
 482  00FF  1300     E  	adc a,re
 482  0100  0080     E  	mov rc,a
 482  0101  0700     E  	mov a,rb
 482  0102  0080     R  	mov _down_key_tick[0],a
 482  0103  0700     E  	mov a,rc
 482  0104  0080     R  	mov _down_key_tick[1],a
 483  0105              #line 483 "e:\f12-ht66f018\adc_polling\src\main.c"
 483  0105  0700     R  	mov a,_key_scan_2[0]
 483  0106  0A02        	sub a,2
 483  0107  390A        	snz z
 483  0108  2800     R  	jmp _L58
 485  0109              #line 485 "e:\f12-ht66f018\adc_polling\src\main.c"
 485  0109  0700     E  	mov a,rb
 485  010A  0C2C        	xor a,44
 485  010B  0700     E  	mov a,rc
 485  010C  3D0A        	sz z
 485  010D  0C01        	xor a,1
 485  010E  390A        	snz z
 485  010F  2800     R  	jmp _L59
 487  0110              #line 487 "e:\f12-ht66f018\adc_polling\src\main.c"
 487  0110  0F09        	mov a,9
 487  0111  0080     R  	mov _key_flag_1[0],a
 487  0112  2800     R  	jmp _L59
 487  0113              _L58:
 490  0113              #line 490 "e:\f12-ht66f018\adc_polling\src\main.c"
 490  0113  1080     R  	sz _key_scan_2[0]
 490  0114  2800     R  	jmp _L59
 492  0115              #line 492 "e:\f12-ht66f018\adc_polling\src\main.c"
 492  0115  0F63        	mov a,99
 492  0116  0200     E  	sub a,rd
 492  0117  0F00        	mov a,0
 492  0118  1200     E  	sbc a,re
 492  0119  380A        	snz c
 492  011A  2800     R  	jmp _L60
 494  011B              #line 494 "e:\f12-ht66f018\adc_polling\src\main.c"
 494  011B  0F02        	mov a,2
 494  011C  0080     R  	mov _key_flag_1[0],a
 494  011D  2800     R  	jmp _L61
 494  011E              _L60:
 496  011E              #line 496 "e:\f12-ht66f018\adc_polling\src\main.c"
 496  011E  0F2C        	mov a,44
 496  011F  0200     E  	sub a,rb
文件：main.c       编译器版本 HGASM 0202 页次17

 496  0120  0F01        	mov a,1
 496  0121  1200     E  	sbc a,rc
 496  0122  3C0A        	sz c
 496  0123  2800     R  	jmp _L61
 498  0124              #line 498 "e:\f12-ht66f018\adc_polling\src\main.c"
 498  0124  0F10        	mov a,16
 498  0125  0080     R  	mov _key_flag_1[0],a
 498  0126              _L61:
 500  0126              #line 500 "e:\f12-ht66f018\adc_polling\src\main.c"
 500  0126  1F00     R  	clr _down_key_tick[0]
 500  0127  1F00     R  	clr _down_key_tick[1]
 500  0128              _L59:
 503  0128              #line 503 "e:\f12-ht66f018\adc_polling\src\main.c"
 503  0128  0700     R  	mov a,_up_key_tick[0]
 503  0129  0080     E  	mov rd,a
 503  012A  0700     R  	mov a,_up_key_tick[1]
 503  012B  0080     E  	mov re,a
 503  012C  0F01        	mov a,1
 503  012D  0300     E  	add a,rd
 503  012E  0080     E  	mov rb,a
 503  012F  0F00        	mov a,0
 503  0130  1300     E  	adc a,re
 503  0131  0080     E  	mov rc,a
 503  0132  0700     E  	mov a,rb
 503  0133  0080     R  	mov _up_key_tick[0],a
 503  0134  0700     E  	mov a,rc
 503  0135  0080     R  	mov _up_key_tick[1],a
 504  0136              #line 504 "e:\f12-ht66f018\adc_polling\src\main.c"
 504  0136  1700     R  	sdza _key_scan_2[0]
 504  0137  2800     R  	jmp _L62
 506  0138              #line 506 "e:\f12-ht66f018\adc_polling\src\main.c"
 506  0138  0700     E  	mov a,rb
 506  0139  0C2C        	xor a,44
 506  013A  0700     E  	mov a,rc
 506  013B  3D0A        	sz z
 506  013C  0C01        	xor a,1
 506  013D  390A        	snz z
 506  013E  2800     R  	jmp _L37
 508  013F              #line 508 "e:\f12-ht66f018\adc_polling\src\main.c"
 508  013F  0F08        	mov a,8
 508  0140  0080     R  	mov _key_flag_1[0],a
 508  0141  2800     R  	jmp _L37
 508  0142              _L62:
 511  0142              #line 511 "e:\f12-ht66f018\adc_polling\src\main.c"
 511  0142  1080     R  	sz _key_scan_2[0]
 511  0143  2800     R  	jmp _L37
 513  0144              #line 513 "e:\f12-ht66f018\adc_polling\src\main.c"
 513  0144  0F63        	mov a,99
 513  0145  0200     E  	sub a,rd
 513  0146  0F00        	mov a,0
 513  0147  1200     E  	sbc a,re
 513  0148  380A        	snz c
 513  0149  2800     R  	jmp _L64
 515  014A              #line 515 "e:\f12-ht66f018\adc_polling\src\main.c"
 515  014A  0F01        	mov a,1
 515  014B  0080     R  	mov _key_flag_1[0],a
 515  014C  2800     R  	jmp _L65
 515  014D              _L64:
 517  014D              #line 517 "e:\f12-ht66f018\adc_polling\src\main.c"
 517  014D  0F2C        	mov a,44
文件：main.c       编译器版本 HGASM 0202 页次18

 517  014E  0200     E  	sub a,rb
 517  014F  0F01        	mov a,1
 517  0150  1200     E  	sbc a,rc
 517  0151  3C0A        	sz c
 517  0152  2800     R  	jmp _L65
 519  0153              #line 519 "e:\f12-ht66f018\adc_polling\src\main.c"
 519  0153  0F0F        	mov a,15
 519  0154  0080     R  	mov _key_flag_1[0],a
 519  0155              _L65:
 521  0155              #line 521 "e:\f12-ht66f018\adc_polling\src\main.c"
 521  0155  1F00     R  	clr _up_key_tick[0]
 521  0156  1F00     R  	clr _up_key_tick[1]
 521  0157              _L37:
 521  0157  0003        	ret
 521  0158              _key_scan endp
 521  0158              #line 521 "e:\f12-ht66f018\adc_polling\src\main.c"
 521  0158              #pragma debug scope 1 1
 521  0158              public _isr_TM0
 521  0158              #pragma debug scope 16 1
 529  0158              #line 529 "e:\f12-ht66f018\adc_polling\src\main.c"
 529  0000              @isr_TM0_code .section at 12 'code'
 529  0000  0080     E  	mov r1,a
 529  0001  070A        	mov a,status
 529  0002  0080     E  	mov r2,a
 529  0003  2800     R  	jmp _isr_TM0
 529  0004              #pragma debug scope 1 1
 529  0004              @dummy12 endp
 529  0004              #pragma debug scope 17 1
 529  0000              _isr_TM0 .section 'code'
 529  0000              _isr_TM0 proc
 529  0000  0704        	mov a,bp
 529  0001  0080     E  	mov r3,a
 529  0002  0703        	mov a,mp
 529  0003  0080     E  	mov r4,a
 529  0004  0701        	mov a,sbp
 529  0005  0080     E  	mov r5,a
 529  0006  0707        	mov a,tblp
 529  0007  0080     E  	mov r6,a
 529  0008  0709        	mov a,tbhp
 529  0009  0080     E  	mov r7,a
 530  000A              #line 530 "e:\f12-ht66f018\adc_polling\src\main.c"
 530  000A  3691        	clr [17].5
 532  000B              #line 532 "e:\f12-ht66f018\adc_polling\src\main.c"
 532  000B  1480     R  	inc _tms[0]
 532  000C  3D0A        	sz z
 532  000D  1480     R  	inc _tms[1]
 533  000E              #line 533 "e:\f12-ht66f018\adc_polling\src\main.c"
 533  000E  0F13        	mov a,19
 533  000F  0200     R  	sub a,_tms[0]
 533  0010  0F00        	mov a,0
 533  0011  1200     R  	sbc a,_tms[1]
 533  0012  3C0A        	sz c
 533  0013  2800     R  	jmp _L67
 535  0014              #line 535 "e:\f12-ht66f018\adc_polling\src\main.c"
 535  0014  1F00     R  	clr _tms[0]
 535  0015  1F00     R  	clr _tms[1]
 536  0016              #line 536 "e:\f12-ht66f018\adc_polling\src\main.c"
 536  0016  3000     R  	set _uF1[0].0
 536  0017              _L67:
 539  0017              #line 539 "e:\f12-ht66f018\adc_polling\src\main.c"
文件：main.c       编译器版本 HGASM 0202 页次19

 539  0017  2000     R  	call _key_scan
 541  0018              #line 541 "e:\f12-ht66f018\adc_polling\src\main.c"
 541  0018  300E        	set [14].0
 541  0019  0700     E  	mov a,r2
 541  001A  008A        	mov status,a
 541  001B  0700     E  	mov a,r3
 541  001C  0084        	mov bp,a
 541  001D  0700     E  	mov a,r4
 541  001E  0083        	mov mp,a
 541  001F  0700     E  	mov a,r5
 541  0020  0081        	mov sbp,a
 541  0021  0700     E  	mov a,r6
 541  0022  0087        	mov tblp,a
 541  0023  0700     E  	mov a,r7
 541  0024  0089        	mov tbhp,a
 541  0025  1D05        	tabrdc acc
 541  0026  0700     E  	mov a,r1
 541  0027  0004        	reti
 541  0028              _isr_TM0 endp
 541  0028              
 541  0028              #line 541 "e:\f12-ht66f018\adc_polling\src\main.c"
 541  0028              #pragma debug scope 1 1
 541  0028              public _main
 541  0028              #pragma debug scope 18 1
 553  0028              #line 553 "e:\f12-ht66f018\adc_polling\src\main.c"
 553  0028              IFDEF WITH_DEFAULT_STARTUP
 553  0028              extern _main_initial0:near
 553  0028              extern _main_startup:near
 553  0028              ENDIF
 553  0028              
 553  0028              ROMBANK 0 @start
 553  0000              @start .section com_l 'code'
 553  0000              _main_startup1:
 553  0000              @start .section com_e 'code'
 553  0000  2800     R  	jmp _main
 553  0001              
 553  0000              _main .section 'code'
 553  0000              _main proc
 553  0000  0002[           local _main_2 db 2 dup(?)
            00
            ]
 553  0002              #pragma debug variable 12 18 _main_2+0 "g_nConversionValue"
 558  0002              #line 558 "e:\f12-ht66f018\adc_polling\src\main.c"
 558  0002              ;# 558 "e:\f12-ht66f018\adc_polling\src\main.c" 1
 558  0000              	IF 100>263690
 558  0000              ;# 558 "e:\f12-ht66f018\adc_polling\src\main.c" 1
 558  0000              	ERRMESSAGE 'the value 100of the argument exceeds the maxinum 263690'
 558  0000              	ENDIF
 558  0000              ;# 558 "e:\f12-ht66f018\adc_polling\src\main.c" 1
 558  0000              	IF 100<0
 558  0000              ;# 558 "e:\f12-ht66f018\adc_polling\src\main.c" 1
 558  0000              	ERRMESSAGE 'the value 100 of the argument exceeds the mininum 0'
 558  0000              	ENDIF
 558  0000              ;# 558 "e:\f12-ht66f018\adc_polling\src\main.c" 1
 558  0000              	IF 100==0
 558  0000              ;# 558 "e:\f12-ht66f018\adc_polling\src\main.c" 1
 558  0000              	JMP $
 558  0000              	ENDIF
 558  0000              ;# 558 "e:\f12-ht66f018\adc_polling\src\main.c" 1
 558  0000              	IF 100==1
文件：main.c       编译器版本 HGASM 0202 页次20

 558  0000              ;# 558 "e:\f12-ht66f018\adc_polling\src\main.c" 1
 558  0000              	NOP
 558  0000              	ENDIF
 558  0000              ;# 558 "e:\f12-ht66f018\adc_polling\src\main.c" 1
 558  0000              	IF 100==2
 558  0000              ;# 558 "e:\f12-ht66f018\adc_polling\src\main.c" 1
 558  0000              	NOP
 558  0000              ;# 558 "e:\f12-ht66f018\adc_polling\src\main.c" 1
 558  0000              	NOP
 558  0000              	ENDIF
 558  0000              ;# 558 "e:\f12-ht66f018\adc_polling\src\main.c" 1
 558  0000              	IF 100==3
 558  0000              ;# 558 "e:\f12-ht66f018\adc_polling\src\main.c" 1
 558  0000              	NOP
 558  0000              ;# 558 "e:\f12-ht66f018\adc_polling\src\main.c" 1
 558  0000              	NOP
 558  0000              ;# 558 "e:\f12-ht66f018\adc_polling\src\main.c" 1
 558  0000              	NOP
 558  0000              	ENDIF
 558  0000              ;# 558 "e:\f12-ht66f018\adc_polling\src\main.c" 1
 558  0000              	IF (100<8) AND (100>3)
 558  0000              ;# 558 "e:\f12-ht66f018\adc_polling\src\main.c" 1
 558  0000              	CALL __DELAY3 + 7 -100
 558  0000              	ENDIF
 558  0000              ;# 558 "e:\f12-ht66f018\adc_polling\src\main.c" 1
 558  0000              	IF (100< 0404h) AND (100>7)
 558  0000              ;# 558 "e:\f12-ht66f018\adc_polling\src\main.c" 1
 558  0000  0F18        	MOV A,100/4-1
 558  0001              ;# 558 "e:\f12-ht66f018\adc_polling\src\main.c" 1
 558  0001  2000     E  	CALL __DELAYX3 + 3 -(100 MOD 4)
 558  0002              	ENDIF
 558  0002              ;# 558 "e:\f12-ht66f018\adc_polling\src\main.c" 1
 558  0002              	IF (100< 0x40B) AND (100> 0403h)
 558  0002              ;# 558 "e:\f12-ht66f018\adc_polling\src\main.c" 1
 558  0002              	MOV A,0 
 558  0002              ;# 558 "e:\f12-ht66f018\adc_polling\src\main.c" 1
 558  0002              	CALL __DELAYX6 + 0x40a -100
 558  0002              	ENDIF
 558  0002              ;# 558 "e:\f12-ht66f018\adc_polling\src\main.c" 1
 558  0002              	IF (100 >= 0x40b) AND ((((100-9)%0402h)/4+1)>256)
 558  0002              ;# 558 "e:\f12-ht66f018\adc_polling\src\main.c" 1
 558  0002              	MOV A,(100-9)/0402h
 558  0002              ;# 558 "e:\f12-ht66f018\adc_polling\src\main.c" 1
 558  0002              	MOV _builtin_holtek_delay_2,A
 558  0002              ;# 558 "e:\f12-ht66f018\adc_polling\src\main.c" 1
 558  0002              	MOV A,0
 558  0002              ;# 558 "e:\f12-ht66f018\adc_polling\src\main.c" 1
 558  0002              	CALL __DELAYY5 +5- (((100-9)%0402h)%6)
 558  0002              	ENDIF
 558  0002              ;# 558 "e:\f12-ht66f018\adc_polling\src\main.c" 1
 558  0002              	IF (100 >= 0x40b) AND ((((100-9)%0402h)/4+1)<=256)
 558  0002              ;# 558 "e:\f12-ht66f018\adc_polling\src\main.c" 1
 558  0002              	MOV A,(100-9)/0402h
 558  0002              ;# 558 "e:\f12-ht66f018\adc_polling\src\main.c" 1
 558  0002              	MOV _builtin_holtek_delay_2,A
 558  0002              ;# 558 "e:\f12-ht66f018\adc_polling\src\main.c" 1
 558  0002              	MOV A,((100-9)%0402h)/4+1
 558  0002              ;# 558 "e:\f12-ht66f018\adc_polling\src\main.c" 1
 558  0002              	CALL __DELAYY3 +3-(((100-9)%0402h)%4)
 558  0002              	ENDIF
文件：main.c       编译器版本 HGASM 0202 页次21

 559  0002              #line 559 "e:\f12-ht66f018\adc_polling\src\main.c"
 559  0002  2000     R  	call _Init_clock
 561  0003              #line 561 "e:\f12-ht66f018\adc_polling\src\main.c"
 561  0003  1F00     R  	clr _GPIOA_INIT_2[2]
 561  0004  1F00     R  	clr _GPIOA_INIT_2[1]
 561  0005  1F00     R  	clr _GPIOA_INIT_2[0]
 561  0006  0F3A        	mov a,58
 561  0007  2000     R  	call _GPIOA_INIT
 562  0008              #line 562 "e:\f12-ht66f018\adc_polling\src\main.c"
 562  0008  1F00     R  	clr _GPIOB_INIT_2[1]
 562  0009  1F00     R  	clr _GPIOB_INIT_2[0]
 562  000A  0F78        	mov a,120
 562  000B  2000     R  	call _GPIOB_INIT
 563  000C              #line 563 "e:\f12-ht66f018\adc_polling\src\main.c"
 563  000C  1F00     R  	clr _GPIOC_INIT_2[1]
 563  000D  1F00     R  	clr _GPIOC_INIT_2[0]
 563  000E  0F01        	mov a,1
 563  000F  2000     R  	call _GPIOC_INIT
 565  0010              #line 565 "e:\f12-ht66f018\adc_polling\src\main.c"
 565  0010  1F00     R  	clr _GPIOC_INIT_2[1]
 565  0011  0F01        	mov a,1
 565  0012  0080     R  	mov _GPIOC_INIT_2[0],a
 565  0013  0F06        	mov a,6
 565  0014  2000     R  	call _GPIOC_INIT
 567  0015              #line 567 "e:\f12-ht66f018\adc_polling\src\main.c"
 567  0015  2000     R  	call _init_TM1628
 576  0016              #line 576 "e:\f12-ht66f018\adc_polling\src\main.c"
 576  0016  2000     E  	call _ADC_Init
 582  0017              #line 582 "e:\f12-ht66f018\adc_polling\src\main.c"
 582  0017  36A2        	clr [34].5
 584  0018              #line 584 "e:\f12-ht66f018\adc_polling\src\main.c"
 584  0018              ;# 584 "e:\f12-ht66f018\adc_polling\src\main.c" 1
 584  0018              	IF 2000>263690
 584  0018              ;# 584 "e:\f12-ht66f018\adc_polling\src\main.c" 1
 584  0018              	ERRMESSAGE 'the value 2000of the argument exceeds the maxinum 263690'
 584  0018              	ENDIF
 584  0018              ;# 584 "e:\f12-ht66f018\adc_polling\src\main.c" 1
 584  0018              	IF 2000<0
 584  0018              ;# 584 "e:\f12-ht66f018\adc_polling\src\main.c" 1
 584  0018              	ERRMESSAGE 'the value 2000 of the argument exceeds the mininum 0'
 584  0018              	ENDIF
 584  0018              ;# 584 "e:\f12-ht66f018\adc_polling\src\main.c" 1
 584  0018              	IF 2000==0
 584  0018              ;# 584 "e:\f12-ht66f018\adc_polling\src\main.c" 1
 584  0018              	JMP $
 584  0018              	ENDIF
 584  0018              ;# 584 "e:\f12-ht66f018\adc_polling\src\main.c" 1
 584  0018              	IF 2000==1
 584  0018              ;# 584 "e:\f12-ht66f018\adc_polling\src\main.c" 1
 584  0018              	NOP
 584  0018              	ENDIF
 584  0018              ;# 584 "e:\f12-ht66f018\adc_polling\src\main.c" 1
 584  0018              	IF 2000==2
 584  0018              ;# 584 "e:\f12-ht66f018\adc_polling\src\main.c" 1
 584  0018              	NOP
 584  0018              ;# 584 "e:\f12-ht66f018\adc_polling\src\main.c" 1
 584  0018              	NOP
 584  0018              	ENDIF
 584  0018              ;# 584 "e:\f12-ht66f018\adc_polling\src\main.c" 1
 584  0018              	IF 2000==3
文件：main.c       编译器版本 HGASM 0202 页次22

 584  0018              ;# 584 "e:\f12-ht66f018\adc_polling\src\main.c" 1
 584  0018              	NOP
 584  0018              ;# 584 "e:\f12-ht66f018\adc_polling\src\main.c" 1
 584  0018              	NOP
 584  0018              ;# 584 "e:\f12-ht66f018\adc_polling\src\main.c" 1
 584  0018              	NOP
 584  0018              	ENDIF
 584  0018              ;# 584 "e:\f12-ht66f018\adc_polling\src\main.c" 1
 584  0018              	IF (2000<8) AND (2000>3)
 584  0018              ;# 584 "e:\f12-ht66f018\adc_polling\src\main.c" 1
 584  0018              	CALL __DELAY3 + 7 -2000
 584  0018              	ENDIF
 584  0018              ;# 584 "e:\f12-ht66f018\adc_polling\src\main.c" 1
 584  0018              	IF (2000< 0404h) AND (2000>7)
 584  0018              ;# 584 "e:\f12-ht66f018\adc_polling\src\main.c" 1
 584  0018              	MOV A,2000/4-1
 584  0018              ;# 584 "e:\f12-ht66f018\adc_polling\src\main.c" 1
 584  0018              	CALL __DELAYX3 + 3 -(2000 MOD 4)
 584  0018              	ENDIF
 584  0018              ;# 584 "e:\f12-ht66f018\adc_polling\src\main.c" 1
 584  0018              	IF (2000< 0x40B) AND (2000> 0403h)
 584  0018              ;# 584 "e:\f12-ht66f018\adc_polling\src\main.c" 1
 584  0018              	MOV A,0 
 584  0018              ;# 584 "e:\f12-ht66f018\adc_polling\src\main.c" 1
 584  0018              	CALL __DELAYX6 + 0x40a -2000
 584  0018              	ENDIF
 584  0018              ;# 584 "e:\f12-ht66f018\adc_polling\src\main.c" 1
 584  0018              	IF (2000 >= 0x40b) AND ((((2000-9)%0402h)/4+1)>256)
 584  0018              ;# 584 "e:\f12-ht66f018\adc_polling\src\main.c" 1
 584  0018              	MOV A,(2000-9)/0402h
 584  0018              ;# 584 "e:\f12-ht66f018\adc_polling\src\main.c" 1
 584  0018              	MOV _builtin_holtek_delay_2,A
 584  0018              ;# 584 "e:\f12-ht66f018\adc_polling\src\main.c" 1
 584  0018              	MOV A,0
 584  0018              ;# 584 "e:\f12-ht66f018\adc_polling\src\main.c" 1
 584  0018              	CALL __DELAYY5 +5- (((2000-9)%0402h)%6)
 584  0018              	ENDIF
 584  0018              ;# 584 "e:\f12-ht66f018\adc_polling\src\main.c" 1
 584  0018              	IF (2000 >= 0x40b) AND ((((2000-9)%0402h)/4+1)<=256)
 584  0018              ;# 584 "e:\f12-ht66f018\adc_polling\src\main.c" 1
 584  0018  0F01        	MOV A,(2000-9)/0402h
 584  0019              ;# 584 "e:\f12-ht66f018\adc_polling\src\main.c" 1
 584  0019  0080     E  	MOV _builtin_holtek_delay_2,A
 584  001A              ;# 584 "e:\f12-ht66f018\adc_polling\src\main.c" 1
 584  001A  0FF2        	MOV A,((2000-9)%0402h)/4+1
 584  001B              ;# 584 "e:\f12-ht66f018\adc_polling\src\main.c" 1
 584  001B  2000     E  	CALL __DELAYY3 +3-(((2000-9)%0402h)%4)
 584  001C              	ENDIF
 554  001C              #line 554 "e:\f12-ht66f018\adc_polling\src\main.c"
 554  001C  1F00     R  	clr _main_2[0]
 554  001D  1F00     R  	clr _main_2[1]
 554  001E              _L70:
 589  001E              #line 589 "e:\f12-ht66f018\adc_polling\src\main.c"
 589  001E              ;# 589 "e:\f12-ht66f018\adc_polling\src\main.c" 1
 589  001E  0001        	clr wdt
 592  001F              #line 592 "e:\f12-ht66f018\adc_polling\src\main.c"
 592  001F  3800     R  	snz _uF1[0].0
 592  0020  2800     R  	jmp _L69
 594  0021              #line 594 "e:\f12-ht66f018\adc_polling\src\main.c"
 594  0021  3400     R  	clr _uF1[0].0
文件：main.c       编译器版本 HGASM 0202 页次23

 595  0022              #line 595 "e:\f12-ht66f018\adc_polling\src\main.c"
 595  0022  0F00        	mov a,0
 595  0023  2000     E  	call _ADC_GetChannelValue
 595  0024  0700     E  	mov a,ra
 595  0025  0080     R  	mov _main_2[0],a
 595  0026  0700     E  	mov a,rb
 595  0027  0080     R  	mov _main_2[1],a
 595  0028              _L69:
 608  0028              #line 608 "e:\f12-ht66f018\adc_polling\src\main.c"
 608  0028  1F00     E  	clr _builtin_holtek_udivmodhi4_2[6]
 608  0029  0700     R  	mov a,_main_2[0]  
 608  002A  0080     E  	mov _builtin_holtek_udivmodhi4_2[0],a  
 608  002B  0700     R  	mov a,_main_2[1]  
 608  002C  0080     E  	mov _builtin_holtek_udivmodhi4_2[1],a
 608  002D  0FE8        	mov a,232  
 608  002E  0080     E  	mov _builtin_holtek_udivmodhi4_2[2],a  
 608  002F  0F03        	mov a,3  
 608  0030  0080     E  	mov _builtin_holtek_udivmodhi4_2[3],a
 608  0031  2000     E  	call _builtin_holtek_udivmodhi4
 608  0032  0700     E  	mov a,_builtin_holtek_udivmodhi4_2[0]  
 608  0033  0080     E  	mov rb,a  
 608  0034  0700     E  	mov a,_builtin_holtek_udivmodhi4_2[1]  
 608  0035  0080     E  	mov rc,a
 608  0036  0F00     R  	mov a,low offset _Num_tab_7
 608  0037  0300     E  	add a,rb
 608  0038  0083        	mov mp,a
 608  0039  0F00     R  	mov a,high offset _Num_tab_7
 608  003A  1300     E  	adc a,rc
 608  003B  0081        	mov sbp,a
 608  003C  2000     E  	call _Crom2Prom
 608  003D  0080     R  	mov _Write_DATA_2[0],a
 608  003E  0FC0        	mov a,192
 608  003F  2000     R  	call _Write_DATA
 609  0040              #line 609 "e:\f12-ht66f018\adc_polling\src\main.c"
 609  0040  1F00     E  	clr _builtin_holtek_udivmodhi4_2[6]
 609  0041  0700     R  	mov a,_main_2[0]  
 609  0042  0080     E  	mov _builtin_holtek_udivmodhi4_2[0],a  
 609  0043  0700     R  	mov a,_main_2[1]  
 609  0044  0080     E  	mov _builtin_holtek_udivmodhi4_2[1],a
 609  0045  0F64        	mov a,100  
 609  0046  0080     E  	mov _builtin_holtek_udivmodhi4_2[2],a  
 609  0047  1F00     E  	clr _builtin_holtek_udivmodhi4_2[3]
 609  0048  2000     E  	call _builtin_holtek_udivmodhi4
 609  0049  0700     E  	mov a,_builtin_holtek_udivmodhi4_2[0]  
 609  004A  0080     E  	mov rb,a  
 609  004B  0700     E  	mov a,_builtin_holtek_udivmodhi4_2[1]  
 609  004C  0080     E  	mov rc,a
 609  004D  1F00     E  	clr _builtin_holtek_udivmodhi4_2[6]
 609  004E  0700     E  	mov a,rb  
 609  004F  0080     E  	mov _builtin_holtek_udivmodhi4_2[0],a  
 609  0050  0700     E  	mov a,rc  
 609  0051  0080     E  	mov _builtin_holtek_udivmodhi4_2[1],a
 609  0052  0F0A        	mov a,10  
 609  0053  0080     E  	mov _builtin_holtek_udivmodhi4_2[2],a  
 609  0054  1F00     E  	clr _builtin_holtek_udivmodhi4_2[3]
 609  0055  2000     E  	call _builtin_holtek_udivmodhi4
 609  0056  0700     E  	mov a,_builtin_holtek_udivmodhi4_2[4]  
 609  0057  0080     E  	mov rb,a  
 609  0058  0700     E  	mov a,_builtin_holtek_udivmodhi4_2[5]  
 609  0059  0080     E  	mov rc,a
文件：main.c       编译器版本 HGASM 0202 页次24

 609  005A  0F00     R  	mov a,low offset _Num_tab_7
 609  005B  0300     E  	add a,rb
 609  005C  0083        	mov mp,a
 609  005D  0F00     R  	mov a,high offset _Num_tab_7
 609  005E  1300     E  	adc a,rc
 609  005F  0081        	mov sbp,a
 609  0060  2000     E  	call _Crom2Prom
 609  0061  0080     R  	mov _Write_DATA_2[0],a
 609  0062  0FC2        	mov a,194
 609  0063  2000     R  	call _Write_DATA
 610  0064              #line 610 "e:\f12-ht66f018\adc_polling\src\main.c"
 610  0064  1F00     E  	clr _builtin_holtek_udivmodhi4_2[6]
 610  0065  0700     R  	mov a,_main_2[0]  
 610  0066  0080     E  	mov _builtin_holtek_udivmodhi4_2[0],a  
 610  0067  0700     R  	mov a,_main_2[1]  
 610  0068  0080     E  	mov _builtin_holtek_udivmodhi4_2[1],a
 610  0069  0F0A        	mov a,10  
 610  006A  0080     E  	mov _builtin_holtek_udivmodhi4_2[2],a  
 610  006B  1F00     E  	clr _builtin_holtek_udivmodhi4_2[3]
 610  006C  2000     E  	call _builtin_holtek_udivmodhi4
 610  006D  0700     E  	mov a,_builtin_holtek_udivmodhi4_2[0]  
 610  006E  0080     E  	mov rb,a  
 610  006F  0700     E  	mov a,_builtin_holtek_udivmodhi4_2[1]  
 610  0070  0080     E  	mov rc,a
 610  0071  1F00     E  	clr _builtin_holtek_udivmodhi4_2[6]
 610  0072  0700     E  	mov a,rb  
 610  0073  0080     E  	mov _builtin_holtek_udivmodhi4_2[0],a  
 610  0074  0700     E  	mov a,rc  
 610  0075  0080     E  	mov _builtin_holtek_udivmodhi4_2[1],a
 610  0076  0F0A        	mov a,10  
 610  0077  0080     E  	mov _builtin_holtek_udivmodhi4_2[2],a  
 610  0078  1F00     E  	clr _builtin_holtek_udivmodhi4_2[3]
 610  0079  2000     E  	call _builtin_holtek_udivmodhi4
 610  007A  0700     E  	mov a,_builtin_holtek_udivmodhi4_2[4]  
 610  007B  0080     E  	mov rb,a  
 610  007C  0700     E  	mov a,_builtin_holtek_udivmodhi4_2[5]  
 610  007D  0080     E  	mov rc,a
 610  007E  0F00     R  	mov a,low offset _Num_tab_7
 610  007F  0300     E  	add a,rb
 610  0080  0083        	mov mp,a
 610  0081  0F00     R  	mov a,high offset _Num_tab_7
 610  0082  1300     E  	adc a,rc
 610  0083  0081        	mov sbp,a
 610  0084  2000     E  	call _Crom2Prom
 610  0085  0080     R  	mov _Write_DATA_2[0],a
 610  0086  0FC4        	mov a,196
 610  0087  2000     R  	call _Write_DATA
 611  0088              #line 611 "e:\f12-ht66f018\adc_polling\src\main.c"
 611  0088  1F00     E  	clr _builtin_holtek_udivmodhi4_2[6]
 611  0089  0700     R  	mov a,_main_2[0]  
 611  008A  0080     E  	mov _builtin_holtek_udivmodhi4_2[0],a  
 611  008B  0700     R  	mov a,_main_2[1]  
 611  008C  0080     E  	mov _builtin_holtek_udivmodhi4_2[1],a
 611  008D  0F0A        	mov a,10  
 611  008E  0080     E  	mov _builtin_holtek_udivmodhi4_2[2],a  
 611  008F  1F00     E  	clr _builtin_holtek_udivmodhi4_2[3]
 611  0090  2000     E  	call _builtin_holtek_udivmodhi4
 611  0091  0700     E  	mov a,_builtin_holtek_udivmodhi4_2[4]  
 611  0092  0080     E  	mov rb,a  
 611  0093  0700     E  	mov a,_builtin_holtek_udivmodhi4_2[5]  
文件：main.c       编译器版本 HGASM 0202 页次25

 611  0094  0080     E  	mov rc,a
 611  0095  0F00     R  	mov a,low offset _Num_tab_7
 611  0096  0300     E  	add a,rb
 611  0097  0083        	mov mp,a
 611  0098  0F00     R  	mov a,high offset _Num_tab_7
 611  0099  1300     E  	adc a,rc
 611  009A  0081        	mov sbp,a
 611  009B  2000     E  	call _Crom2Prom
 611  009C  0080     R  	mov _Write_DATA_2[0],a
 611  009D  0FC6        	mov a,198
 611  009E  2000     R  	call _Write_DATA
 612  009F              #line 612 "e:\f12-ht66f018\adc_polling\src\main.c"
 612  009F  0F3F        	mov a,63
 612  00A0  0080     R  	mov _Write_DATA_2[0],a
 612  00A1  0FC8        	mov a,200
 612  00A2  2000     R  	call _Write_DATA
 613  00A3              #line 613 "e:\f12-ht66f018\adc_polling\src\main.c"
 613  00A3  0F66        	mov a,102
 613  00A4  0080     R  	mov _Write_DATA_2[0],a
 613  00A5  0FCA        	mov a,202
 613  00A6  2000     R  	call _Write_DATA
 614  00A7              #line 614 "e:\f12-ht66f018\adc_polling\src\main.c"
 614  00A7  0F06        	mov a,6
 614  00A8  0080     R  	mov _Write_DATA_2[0],a
 614  00A9  0FCC        	mov a,204
 614  00AA  2000     R  	call _Write_DATA
 627  00AB              #line 627 "e:\f12-ht66f018\adc_polling\src\main.c"
 627  00AB  3040        	set [64].0
 633  00AC              #line 633 "e:\f12-ht66f018\adc_polling\src\main.c"
 633  00AC              ;# 633 "e:\f12-ht66f018\adc_polling\src\main.c" 1
 633  00AC              	IF 4000>263690
 633  00AC              ;# 633 "e:\f12-ht66f018\adc_polling\src\main.c" 1
 633  00AC              	ERRMESSAGE 'the value 4000of the argument exceeds the maxinum 263690'
 633  00AC              	ENDIF
 633  00AC              ;# 633 "e:\f12-ht66f018\adc_polling\src\main.c" 1
 633  00AC              	IF 4000<0
 633  00AC              ;# 633 "e:\f12-ht66f018\adc_polling\src\main.c" 1
 633  00AC              	ERRMESSAGE 'the value 4000 of the argument exceeds the mininum 0'
 633  00AC              	ENDIF
 633  00AC              ;# 633 "e:\f12-ht66f018\adc_polling\src\main.c" 1
 633  00AC              	IF 4000==0
 633  00AC              ;# 633 "e:\f12-ht66f018\adc_polling\src\main.c" 1
 633  00AC              	JMP $
 633  00AC              	ENDIF
 633  00AC              ;# 633 "e:\f12-ht66f018\adc_polling\src\main.c" 1
 633  00AC              	IF 4000==1
 633  00AC              ;# 633 "e:\f12-ht66f018\adc_polling\src\main.c" 1
 633  00AC              	NOP
 633  00AC              	ENDIF
 633  00AC              ;# 633 "e:\f12-ht66f018\adc_polling\src\main.c" 1
 633  00AC              	IF 4000==2
 633  00AC              ;# 633 "e:\f12-ht66f018\adc_polling\src\main.c" 1
 633  00AC              	NOP
 633  00AC              ;# 633 "e:\f12-ht66f018\adc_polling\src\main.c" 1
 633  00AC              	NOP
 633  00AC              	ENDIF
 633  00AC              ;# 633 "e:\f12-ht66f018\adc_polling\src\main.c" 1
 633  00AC              	IF 4000==3
 633  00AC              ;# 633 "e:\f12-ht66f018\adc_polling\src\main.c" 1
 633  00AC              	NOP
文件：main.c       编译器版本 HGASM 0202 页次26

 633  00AC              ;# 633 "e:\f12-ht66f018\adc_polling\src\main.c" 1
 633  00AC              	NOP
 633  00AC              ;# 633 "e:\f12-ht66f018\adc_polling\src\main.c" 1
 633  00AC              	NOP
 633  00AC              	ENDIF
 633  00AC              ;# 633 "e:\f12-ht66f018\adc_polling\src\main.c" 1
 633  00AC              	IF (4000<8) AND (4000>3)
 633  00AC              ;# 633 "e:\f12-ht66f018\adc_polling\src\main.c" 1
 633  00AC              	CALL __DELAY3 + 7 -4000
 633  00AC              	ENDIF
 633  00AC              ;# 633 "e:\f12-ht66f018\adc_polling\src\main.c" 1
 633  00AC              	IF (4000< 0404h) AND (4000>7)
 633  00AC              ;# 633 "e:\f12-ht66f018\adc_polling\src\main.c" 1
 633  00AC              	MOV A,4000/4-1
 633  00AC              ;# 633 "e:\f12-ht66f018\adc_polling\src\main.c" 1
 633  00AC              	CALL __DELAYX3 + 3 -(4000 MOD 4)
 633  00AC              	ENDIF
 633  00AC              ;# 633 "e:\f12-ht66f018\adc_polling\src\main.c" 1
 633  00AC              	IF (4000< 0x40B) AND (4000> 0403h)
 633  00AC              ;# 633 "e:\f12-ht66f018\adc_polling\src\main.c" 1
 633  00AC              	MOV A,0 
 633  00AC              ;# 633 "e:\f12-ht66f018\adc_polling\src\main.c" 1
 633  00AC              	CALL __DELAYX6 + 0x40a -4000
 633  00AC              	ENDIF
 633  00AC              ;# 633 "e:\f12-ht66f018\adc_polling\src\main.c" 1
 633  00AC              	IF (4000 >= 0x40b) AND ((((4000-9)%0402h)/4+1)>256)
 633  00AC              ;# 633 "e:\f12-ht66f018\adc_polling\src\main.c" 1
 633  00AC              	MOV A,(4000-9)/0402h
 633  00AC              ;# 633 "e:\f12-ht66f018\adc_polling\src\main.c" 1
 633  00AC              	MOV _builtin_holtek_delay_2,A
 633  00AC              ;# 633 "e:\f12-ht66f018\adc_polling\src\main.c" 1
 633  00AC              	MOV A,0
 633  00AC              ;# 633 "e:\f12-ht66f018\adc_polling\src\main.c" 1
 633  00AC              	CALL __DELAYY5 +5- (((4000-9)%0402h)%6)
 633  00AC              	ENDIF
 633  00AC              ;# 633 "e:\f12-ht66f018\adc_polling\src\main.c" 1
 633  00AC              	IF (4000 >= 0x40b) AND ((((4000-9)%0402h)/4+1)<=256)
 633  00AC              ;# 633 "e:\f12-ht66f018\adc_polling\src\main.c" 1
 633  00AC  0F03        	MOV A,(4000-9)/0402h
 633  00AD              ;# 633 "e:\f12-ht66f018\adc_polling\src\main.c" 1
 633  00AD  0080     E  	MOV _builtin_holtek_delay_2,A
 633  00AE              ;# 633 "e:\f12-ht66f018\adc_polling\src\main.c" 1
 633  00AE  0FE5        	MOV A,((4000-9)%0402h)/4+1
 633  00AF              ;# 633 "e:\f12-ht66f018\adc_polling\src\main.c" 1
 633  00AF  2000     E  	CALL __DELAYY3 +3-(((4000-9)%0402h)%4)
 633  00B0              	ENDIF
 649  00B0              #line 649 "e:\f12-ht66f018\adc_polling\src\main.c"
 649  00B0  2800     R  	jmp _L70
 649  00B1  2800     R  	jmp $
 649  00B2              _main endp
 649  00B2              
 649  00B2              @dummy endp
 649  00B2              
 649  00B2              #line 649 "e:\f12-ht66f018\adc_polling\src\main.c"
 649  00B2              #pragma debug scope 1 1
 649  00B2              public _key_flag_1
 649  0000              @HCCINIT	.section 'data'
 369  0000              #line 369 "e:\f12-ht66f018\adc_polling\src\main.c"
 369  0000              @HCCINIT .section 'data'
 369  0000              _key_flag_1 label byte
文件：main.c       编译器版本 HGASM 0202 页次27

 369  0000              #pragma debug variable 8 1 _key_flag_1 "key_flag_1"
 369  0000              	db 0
 369  0000              @ROMDATA_BASE .section inpage 'code'
 369  0000              	db 0
 369  0001              @HCCINIT .section 'data'
 369  0001              public _play_key_tick
 367  0001              #line 367 "e:\f12-ht66f018\adc_polling\src\main.c"
 367  0001              @HCCINIT .section 'data'
 367  0001              _play_key_tick label byte
 367  0001              #pragma debug variable 12 1 _play_key_tick "play_key_tick"
 367  0001              	db 0
 367  0001              @ROMDATA_BASE .section inpage 'code'
 367  0001              	db 0
 367  0002              @HCCINIT .section 'data'
 367  0002              	db 0
 367  0001              @ROMDATA_BASE .section inpage 'code'
 367  0001              	db 0
 367  0003              @HCCINIT .section 'data'
 367  0003              public _record_key_tick
 366  0003              #line 366 "e:\f12-ht66f018\adc_polling\src\main.c"
 366  0003              @HCCINIT .section 'data'
 366  0003              _record_key_tick label byte
 366  0003              #pragma debug variable 12 1 _record_key_tick "record_key_tick"
 366  0003              	db 0
 366  0002              @ROMDATA_BASE .section inpage 'code'
 366  0002              	db 0
 366  0004              @HCCINIT .section 'data'
 366  0004              	db 0
 366  0002              @ROMDATA_BASE .section inpage 'code'
 366  0002              	db 0
 366  0005              @HCCINIT .section 'data'
 366  0005              public _feed_key_tick
 365  0005              #line 365 "e:\f12-ht66f018\adc_polling\src\main.c"
 365  0005              @HCCINIT .section 'data'
 365  0005              _feed_key_tick label byte
 365  0005              #pragma debug variable 12 1 _feed_key_tick "feed_key_tick"
 365  0005              	db 0
 365  0003              @ROMDATA_BASE .section inpage 'code'
 365  0003              	db 0
 365  0006              @HCCINIT .section 'data'
 365  0006              	db 0
 365  0003              @ROMDATA_BASE .section inpage 'code'
 365  0003              	db 0
 365  0007              @HCCINIT .section 'data'
 365  0007              public _time_key_tick
 364  0007              #line 364 "e:\f12-ht66f018\adc_polling\src\main.c"
 364  0007              @HCCINIT .section 'data'
 364  0007              _time_key_tick label byte
 364  0007              #pragma debug variable 12 1 _time_key_tick "time_key_tick"
 364  0007              	db 0
 364  0004              @ROMDATA_BASE .section inpage 'code'
 364  0004              	db 0
 364  0008              @HCCINIT .section 'data'
 364  0008              	db 0
 364  0004              @ROMDATA_BASE .section inpage 'code'
 364  0004              	db 0
 364  0009              @HCCINIT .section 'data'
 364  0009              public _set_key_tick
 363  0009              #line 363 "e:\f12-ht66f018\adc_polling\src\main.c"
 363  0009              @HCCINIT .section 'data'
文件：main.c       编译器版本 HGASM 0202 页次28

 363  0009              _set_key_tick label byte
 363  0009              #pragma debug variable 12 1 _set_key_tick "set_key_tick"
 363  0009              	db 0
 363  0005              @ROMDATA_BASE .section inpage 'code'
 363  0005              	db 0
 363  000A              @HCCINIT .section 'data'
 363  000A              	db 0
 363  0005              @ROMDATA_BASE .section inpage 'code'
 363  0005              	db 0
 363  000B              @HCCINIT .section 'data'
 363  000B              public _down_key_tick
 362  000B              #line 362 "e:\f12-ht66f018\adc_polling\src\main.c"
 362  000B              @HCCINIT .section 'data'
 362  000B              _down_key_tick label byte
 362  000B              #pragma debug variable 12 1 _down_key_tick "down_key_tick"
 362  000B              	db 0
 362  0006              @ROMDATA_BASE .section inpage 'code'
 362  0006              	db 0
 362  000C              @HCCINIT .section 'data'
 362  000C              	db 0
 362  0006              @ROMDATA_BASE .section inpage 'code'
 362  0006              	db 0
 362  000D              @HCCINIT .section 'data'
 362  000D              public _up_key_tick
 361  000D              #line 361 "e:\f12-ht66f018\adc_polling\src\main.c"
 361  000D              @HCCINIT .section 'data'
 361  000D              _up_key_tick label byte
 361  000D              #pragma debug variable 12 1 _up_key_tick "up_key_tick"
 361  000D              	db 0
 361  0007              @ROMDATA_BASE .section inpage 'code'
 361  0007              	db 0
 361  000E              @HCCINIT .section 'data'
 361  000E              	db 0
 361  0007              @ROMDATA_BASE .section inpage 'code'
 361  0007              	db 0
 361  000F              @HCCINIT .section 'data'
 361  000F              public _key_flag
 300  000F              #line 300 "e:\f12-ht66f018\adc_polling\src\main.c"
 300  000F              @HCCINIT .section 'data'
 300  000F              _key_flag label byte
 300  000F              #pragma debug variable 8 1 _key_flag "key_flag"
 300  000F              	db 0
 300  0008              @ROMDATA_BASE .section inpage 'code'
 300  0008              	db 0
 300  0010              @HCCINIT .section 'data'
 300  0000              @crom	.section 'crom'
  50  0000              #line 50 "e:\f12-ht66f018\adc_polling\src\main.c"
  50  0000              @crom	.section	'crom'
  50  0000              _Num_tab_7:
  50  0000              #pragma debug array 42 8 10 1
  50  0000              #pragma debug array 42 8 10 1
  50  0000              #pragma debug variable 42 1 _Num_tab_7 "Num_tab_7"
  50  0000              	db 63
  50  0001              	db 6
  50  0001              	db 91
  50  0002              	db 79
  50  0002              	db 102
  50  0003              	db 109
  50  0003              	db 125
  50  0004              	db 7
文件：main.c       编译器版本 HGASM 0202 页次29

  50  0004              	db 127
  50  0005              	db 111

 200  0005              #line 200 "e:\f12-ht66f018\adc_polling\src\init.h"
 200  0005              public _bBbSound
 200  0000              @HCCINIT0 .section 'data'
 200  0000              _bBbSound	db 0
 200  0001              #pragma debug variable 7 1 _bBbSound "bBbSound"
 200  0001              
 200  0010              @HCCINIT .section 'data'
 199  0010              #line 199 "e:\f12-ht66f018\adc_polling\src\init.h"
 199  0010              public _bbCnt
 199  0001              @HCCINIT0 .section 'data'
 199  0001              _bbCnt	db 0
 199  0002              #pragma debug variable 8 1 _bbCnt "bbCnt"
 199  0002              
 199  0010              @HCCINIT .section 'data'
 198  0010              #line 198 "e:\f12-ht66f018\adc_polling\src\init.h"
 198  0010              public _bbTime
 198  0002              @HCCINIT0 .section 'data'
 198  0002  0002[       _bbTime	db 2 dup(0)
            00
            ]
 198  0004              #pragma debug variable 12 1 _bbTime "bbTime"
 198  0004              
 198  0010              @HCCINIT .section 'data'
 197  0010              #line 197 "e:\f12-ht66f018\adc_polling\src\init.h"
 197  0010              public _bbRam
 197  0004              @HCCINIT0 .section 'data'
 197  0004              _bbRam	db 0
 197  0005              #pragma debug variable 8 1 _bbRam "bbRam"
 197  0005              
 197  0010              @HCCINIT .section 'data'
 194  0010              #line 194 "e:\f12-ht66f018\adc_polling\src\init.h"
 194  0010              public _num8
 194  0005              @HCCINIT0 .section 'data'
 194  0005              _num8	db 0
 194  0006              #pragma debug variable 8 1 _num8 "num8"
 194  0006              
 194  0010              @HCCINIT .section 'data'
 193  0010              #line 193 "e:\f12-ht66f018\adc_polling\src\init.h"
 193  0010              public _num7
 193  0006              @HCCINIT0 .section 'data'
 193  0006              _num7	db 0
 193  0007              #pragma debug variable 8 1 _num7 "num7"
 193  0007              
 193  0010              @HCCINIT .section 'data'
 192  0010              #line 192 "e:\f12-ht66f018\adc_polling\src\init.h"
 192  0010              public _num6
 192  0007              @HCCINIT0 .section 'data'
 192  0007              _num6	db 0
 192  0008              #pragma debug variable 8 1 _num6 "num6"
 192  0008              
 192  0010              @HCCINIT .section 'data'
 191  0010              #line 191 "e:\f12-ht66f018\adc_polling\src\init.h"
 191  0010              public _num5
 191  0008              @HCCINIT0 .section 'data'
 191  0008              _num5	db 0
 191  0009              #pragma debug variable 8 1 _num5 "num5"
 191  0009              
文件：init.h       编译器版本 HGASM 0202 页次30

 191  0010              @HCCINIT .section 'data'
 190  0010              #line 190 "e:\f12-ht66f018\adc_polling\src\init.h"
 190  0010              public _num4
 190  0009              @HCCINIT0 .section 'data'
 190  0009  0002[       _num4	db 2 dup(0)
            00
            ]
 190  000B              #pragma debug variable 12 1 _num4 "num4"
 190  000B              
 190  0010              @HCCINIT .section 'data'
 189  0010              #line 189 "e:\f12-ht66f018\adc_polling\src\init.h"
 189  0010              public _num3
 189  000B              @HCCINIT0 .section 'data'
 189  000B  0002[       _num3	db 2 dup(0)
            00
            ]
 189  000D              #pragma debug variable 12 1 _num3 "num3"
 189  000D              
 189  0010              @HCCINIT .section 'data'
 188  0010              #line 188 "e:\f12-ht66f018\adc_polling\src\init.h"
 188  0010              public _num2
 188  000D              @HCCINIT0 .section 'data'
 188  000D              _num2	db 0
 188  000E              #pragma debug variable 8 1 _num2 "num2"
 188  000E              
 188  0010              @HCCINIT .section 'data'
 187  0010              #line 187 "e:\f12-ht66f018\adc_polling\src\init.h"
 187  0010              public _num1
 187  000E              @HCCINIT0 .section 'data'
 187  000E              _num1	db 0
 187  000F              #pragma debug variable 8 1 _num1 "num1"
 187  000F              
 187  0010              @HCCINIT .section 'data'
 185  0010              #line 185 "e:\f12-ht66f018\adc_polling\src\init.h"
 185  0010              public _wei
 185  000F              @HCCINIT0 .section 'data'
 185  000F              _wei	db 0
 185  0010              #pragma debug variable 8 1 _wei "wei"
 185  0010              
 185  0010              @HCCINIT .section 'data'
 183  0010              #line 183 "e:\f12-ht66f018\adc_polling\src\init.h"
 183  0010              public _sum1
 183  0010              @HCCINIT0 .section 'data'
 183  0010  0002[       _sum1	db 2 dup(0)
            00
            ]
 183  0012              #pragma debug variable 12 1 _sum1 "sum1"
 183  0012              
 183  0010              @HCCINIT .section 'data'
 182  0010              #line 182 "e:\f12-ht66f018\adc_polling\src\init.h"
 182  0010              public _sum
 182  0012              @HCCINIT0 .section 'data'
 182  0012  0002[       _sum	db 2 dup(0)
            00
            ]
 182  0014              #pragma debug variable 12 1 _sum "sum"
 182  0014              
 182  0010              @HCCINIT .section 'data'
 180  0010              #line 180 "e:\f12-ht66f018\adc_polling\src\init.h"
 180  0010              public _value
文件：init.h       编译器版本 HGASM 0202 页次31

 180  0014              @HCCINIT0 .section 'data'
 180  0014              _value	db 0
 180  0015              #pragma debug variable 7 1 _value "value"
 180  0015              
 180  0010              @HCCINIT .section 'data'
 179  0010              #line 179 "e:\f12-ht66f018\adc_polling\src\init.h"
 179  0010              public _keystep
 179  0015              @HCCINIT0 .section 'data'
 179  0015              _keystep	db 0
 179  0016              #pragma debug variable 8 1 _keystep "keystep"
 179  0016              
 179  0010              @HCCINIT .section 'data'
 178  0010              #line 178 "e:\f12-ht66f018\adc_polling\src\init.h"
 178  0010              public _step3
 178  0016              @HCCINIT0 .section 'data'
 178  0016              _step3	db 0
 178  0017              #pragma debug variable 8 1 _step3 "step3"
 178  0017              
 178  0010              @HCCINIT .section 'data'
 177  0010              #line 177 "e:\f12-ht66f018\adc_polling\src\init.h"
 177  0010              public _step2
 177  0017              @HCCINIT0 .section 'data'
 177  0017              _step2	db 0
 177  0018              #pragma debug variable 8 1 _step2 "step2"
 177  0018              
 177  0010              @HCCINIT .section 'data'
 176  0010              #line 176 "e:\f12-ht66f018\adc_polling\src\init.h"
 176  0010              public _step1
 176  0018              @HCCINIT0 .section 'data'
 176  0018              _step1	db 0
 176  0019              #pragma debug variable 8 1 _step1 "step1"
 176  0019              
 176  0010              @HCCINIT .section 'data'
 175  0010              #line 175 "e:\f12-ht66f018\adc_polling\src\init.h"
 175  0010              public _step
 175  0019              @HCCINIT0 .section 'data'
 175  0019              _step	db 0
 175  001A              #pragma debug variable 8 1 _step "step"
 175  001A              
 175  0010              @HCCINIT .section 'data'
 174  0010              #line 174 "e:\f12-ht66f018\adc_polling\src\init.h"
 174  0010              public _data
 174  001A              @HCCINIT0 .section 'data'
 174  001A              _data	db 0
 174  001B              #pragma debug variable 8 1 _data "data"
 174  001B              
 174  0010              @HCCINIT .section 'data'
 172  0010              #line 172 "e:\f12-ht66f018\adc_polling\src\init.h"
 172  0010              public _t2s
 172  001B              @HCCINIT0 .section 'data'
 172  001B              _t2s	db 0
 172  001C              #pragma debug variable 8 1 _t2s "t2s"
 172  001C              
 172  0010              @HCCINIT .section 'data'
 171  0010              #line 171 "e:\f12-ht66f018\adc_polling\src\init.h"
 171  0010              public _t10s
 171  001C              @HCCINIT0 .section 'data'
 171  001C              _t10s	db 0
 171  001D              #pragma debug variable 8 1 _t10s "t10s"
 171  001D              
文件：init.h       编译器版本 HGASM 0202 页次32

 171  0010              @HCCINIT .section 'data'
 170  0010              #line 170 "e:\f12-ht66f018\adc_polling\src\init.h"
 170  0010              public _tms4
 170  001D              @HCCINIT0 .section 'data'
 170  001D              _tms4	db 0
 170  001E              #pragma debug variable 8 1 _tms4 "tms4"
 170  001E              
 170  0010              @HCCINIT .section 'data'
 169  0010              #line 169 "e:\f12-ht66f018\adc_polling\src\init.h"
 169  0010              public _tms3
 169  001E              @HCCINIT0 .section 'data'
 169  001E              _tms3	db 0
 169  001F              #pragma debug variable 8 1 _tms3 "tms3"
 169  001F              
 169  0010              @HCCINIT .section 'data'
 168  0010              #line 168 "e:\f12-ht66f018\adc_polling\src\init.h"
 168  0010              public _tms2
 168  001F              @HCCINIT0 .section 'data'
 168  001F              _tms2	db 0
 168  0020              #pragma debug variable 8 1 _tms2 "tms2"
 168  0020              
 168  0010              @HCCINIT .section 'data'
 167  0010              #line 167 "e:\f12-ht66f018\adc_polling\src\init.h"
 167  0010              public _tms1
 167  0020              @HCCINIT0 .section 'data'
 167  0020              _tms1	db 0
 167  0021              #pragma debug variable 8 1 _tms1 "tms1"
 167  0021              
 167  0010              @HCCINIT .section 'data'
 166  0010              #line 166 "e:\f12-ht66f018\adc_polling\src\init.h"
 166  0010              public _tms
 166  0021              @HCCINIT0 .section 'data'
 166  0021  0002[       _tms	db 2 dup(0)
            00
            ]
 166  0023              #pragma debug variable 12 1 _tms "tms"
 166  0023              
 166  0010              @HCCINIT .section 'data'
 163  0010              #line 163 "e:\f12-ht66f018\adc_polling\src\init.h"
 163  0010              public _bj_second
 163  0023              @HCCINIT0 .section 'data'
 163  0023              _bj_second	db 0
 163  0024              #pragma debug variable 7 1 _bj_second "bj_second"
 163  0024              
 163  0010              @HCCINIT .section 'data'
 162  0010              #line 162 "e:\f12-ht66f018\adc_polling\src\init.h"
 162  0010              public _bj_min
 162  0024              @HCCINIT0 .section 'data'
 162  0024              _bj_min	db 0
 162  0025              #pragma debug variable 7 1 _bj_min "bj_min"
 162  0025              
 162  0010              @HCCINIT .section 'data'
 160  0010              #line 160 "e:\f12-ht66f018\adc_polling\src\init.h"
 160  0010              public _peking_min1
 160  0025              @HCCINIT0 .section 'data'
 160  0025              _peking_min1	db 0
 160  0026              #pragma debug variable 7 1 _peking_min1 "peking_min1"
 160  0026              
 160  0010              @HCCINIT .section 'data'
 159  0010              #line 159 "e:\f12-ht66f018\adc_polling\src\init.h"
文件：init.h       编译器版本 HGASM 0202 页次33

 159  0010              public _peking_second1
 159  0026              @HCCINIT0 .section 'data'
 159  0026              _peking_second1	db 0
 159  0027              #pragma debug variable 7 1 _peking_second1 "peking_second1"
 159  0027              
 159  0010              @HCCINIT .section 'data'
 157  0010              #line 157 "e:\f12-ht66f018\adc_polling\src\init.h"
 157  0010              public _peking_second
 157  0027              @HCCINIT0 .section 'data'
 157  0027              _peking_second	db 0
 157  0028              #pragma debug variable 7 1 _peking_second "peking_second"
 157  0028              
 157  0010              @HCCINIT .section 'data'
 156  0010              #line 156 "e:\f12-ht66f018\adc_polling\src\init.h"
 156  0010              public _peking_min
 156  0028              @HCCINIT0 .section 'data'
 156  0028              _peking_min	db 0
 156  0029              #pragma debug variable 7 1 _peking_min "peking_min"
 156  0029              
 156  0010              @HCCINIT .section 'data'
 155  0010              #line 155 "e:\f12-ht66f018\adc_polling\src\init.h"
 155  0010              public _peking_hour
 155  0029              @HCCINIT0 .section 'data'
 155  0029              _peking_hour	db 0
 155  002A              #pragma debug variable 7 1 _peking_hour "peking_hour"
 155  002A              
 155  0010              @HCCINIT .section 'data'
 153  0010              #line 153 "e:\f12-ht66f018\adc_polling\src\init.h"
 153  0010              public _alarm_second
 153  002A              @HCCINIT0 .section 'data'
 153  002A              _alarm_second	db 0
 153  002B              #pragma debug variable 7 1 _alarm_second "alarm_second"
 153  002B              
 153  0010              @HCCINIT .section 'data'
 152  0010              #line 152 "e:\f12-ht66f018\adc_polling\src\init.h"
 152  0010              public _alarm_min
 152  002B              @HCCINIT0 .section 'data'
 152  002B              _alarm_min	db 0
 152  002C              #pragma debug variable 7 1 _alarm_min "alarm_min"
 152  002C              
 152  0010              @HCCINIT .section 'data'
 151  0010              #line 151 "e:\f12-ht66f018\adc_polling\src\init.h"
 151  0010              public _alarm_hour
 151  002C              @HCCINIT0 .section 'data'
 151  002C              _alarm_hour	db 0
 151  002D              #pragma debug variable 7 1 _alarm_hour "alarm_hour"
 151  002D              
 151  0010              @HCCINIT .section 'data'
  63  0010              #line 63 "e:\f12-ht66f018\adc_polling\src\init.h"
  63  0010              public _uF7
  63  002D              @HCCINIT0 .section 'data'
  63  002D              _uF7	db 0
  63  002E              #pragma debug struct_end
  63  002E              #pragma debug struct_end
  63  002E              #pragma debug union_end
  63  002E              #pragma debug union_end
  63  002E              #pragma debug variable 44 1 _uF7 "uF7"
  63  002E              
  63  0010              @HCCINIT .section 'data'
  63  0010              #line 63 "e:\f12-ht66f018\adc_polling\src\init.h"
文件：init.h       编译器版本 HGASM 0202 页次34

  63  0010              public _uF6
  63  002E              @HCCINIT0 .section 'data'
  63  002E              _uF6	db 0
  63  002F              #pragma debug variable 44 1 _uF6 "uF6"
  63  002F              
  63  0010              @HCCINIT .section 'data'
  63  0010              #line 63 "e:\f12-ht66f018\adc_polling\src\init.h"
  63  0010              public _uF5
  63  002F              @HCCINIT0 .section 'data'
  63  002F              _uF5	db 0
  63  0030              #pragma debug variable 44 1 _uF5 "uF5"
  63  0030              
  63  0010              @HCCINIT .section 'data'
  63  0010              #line 63 "e:\f12-ht66f018\adc_polling\src\init.h"
  63  0010              public _uF4
  63  0030              @HCCINIT0 .section 'data'
  63  0030              _uF4	db 0
  63  0031              #pragma debug variable 44 1 _uF4 "uF4"
  63  0031              
  63  0010              @HCCINIT .section 'data'
  63  0010              #line 63 "e:\f12-ht66f018\adc_polling\src\init.h"
  63  0010              public _uF3
  63  0031              @HCCINIT0 .section 'data'
  63  0031              _uF3	db 0
  63  0032              #pragma debug variable 44 1 _uF3 "uF3"
  63  0032              
  63  0010              @HCCINIT .section 'data'
  63  0010              #line 63 "e:\f12-ht66f018\adc_polling\src\init.h"
  63  0010              public _uF2
  63  0032              @HCCINIT0 .section 'data'
  63  0032              _uF2	db 0
  63  0033              #pragma debug variable 44 1 _uF2 "uF2"
  63  0033              
  63  0010              @HCCINIT .section 'data'
  63  0010              #line 63 "e:\f12-ht66f018\adc_polling\src\init.h"
  63  0010              public _uF1
  63  0033              @HCCINIT0 .section 'data'
  63  0033              _uF1	db 0
  63  0034              #pragma debug variable 44 1 _uF1 "uF1"
  63  0034              
  63  0010              @HCCINIT .section 'data'
  63  0010              #pragma debug variable 8 1 ___mp1 "__mp1" 1
  63  0010              #pragma debug struct_end
  63  0010              #pragma debug struct_end
  63  0010              #pragma debug union_end
  63  0010              #pragma debug union_end
  63  0010              #pragma debug variable 46 1 ___bp "__bp" 1
  63  0010              #pragma debug struct_end
  63  0010              #pragma debug struct_end
  63  0010              #pragma debug union_end
  63  0010              #pragma debug union_end
  63  0010              #pragma debug variable 48 1 ___smod "__smod" 1
  63  0010              #pragma debug struct_end
  63  0010              #pragma debug struct_end
  63  0010              #pragma debug union_end
  63  0010              #pragma debug union_end
  63  0010              #pragma debug variable 50 1 ___integ "__integ" 1
  63  0010              #pragma debug struct_end
  63  0010              #pragma debug struct_end
  63  0010              #pragma debug union_end
文件：init.h       编译器版本 HGASM 0202 页次35

  63  0010              #pragma debug union_end
  63  0010              #pragma debug variable 52 1 ___intc0 "__intc0" 1
  63  0010              #pragma debug struct_end
  63  0010              #pragma debug struct_end
  63  0010              #pragma debug union_end
  63  0010              #pragma debug union_end
  63  0010              #pragma debug variable 54 1 ___mfi0 "__mfi0" 1
  63  0010              #pragma debug struct_end
  63  0010              #pragma debug struct_end
  63  0010              #pragma debug union_end
  63  0010              #pragma debug union_end
  63  0010              #pragma debug variable 56 1 ___pa "__pa" 1
  63  0010              #pragma debug struct_end
  63  0010              #pragma debug struct_end
  63  0010              #pragma debug union_end
  63  0010              #pragma debug union_end
  63  0010              #pragma debug variable 58 1 ___pac "__pac" 1
  63  0010              #pragma debug struct_end
  63  0010              #pragma debug struct_end
  63  0010              #pragma debug union_end
  63  0010              #pragma debug union_end
  63  0010              #pragma debug variable 60 1 ___papu "__papu" 1
  63  0010              #pragma debug struct_end
  63  0010              #pragma debug struct_end
  63  0010              #pragma debug union_end
  63  0010              #pragma debug union_end
  63  0010              #pragma debug variable 62 1 ___tmpc "__tmpc" 1
  63  0010              #pragma debug struct_end
  63  0010              #pragma debug struct_end
  63  0010              #pragma debug union_end
  63  0010              #pragma debug union_end
  63  0010              #pragma debug variable 64 1 ___wdtc "__wdtc" 1
  63  0010              #pragma debug struct_end
  63  0010              #pragma debug struct_end
  63  0010              #pragma debug union_end
  63  0010              #pragma debug union_end
  63  0010              #pragma debug variable 66 1 ___adcr0 "__adcr0" 1
  63  0010              #pragma debug struct_end
  63  0010              #pragma debug struct_end
  63  0010              #pragma debug union_end
  63  0010              #pragma debug union_end
  63  0010              #pragma debug variable 68 1 ___acerl "__acerl" 1
  63  0010              #pragma debug struct_end
  63  0010              #pragma debug struct_end
  63  0010              #pragma debug union_end
  63  0010              #pragma debug union_end
  63  0010              #pragma debug variable 70 1 ___pb "__pb" 1
  63  0010              #pragma debug struct_end
  63  0010              #pragma debug struct_end
  63  0010              #pragma debug union_end
  63  0010              #pragma debug union_end
  63  0010              #pragma debug variable 72 1 ___pbc "__pbc" 1
  63  0010              #pragma debug struct_end
  63  0010              #pragma debug struct_end
  63  0010              #pragma debug union_end
  63  0010              #pragma debug union_end
  63  0010              #pragma debug variable 74 1 ___pbpu "__pbpu" 1
  63  0010              #pragma debug struct_end
  63  0010              #pragma debug struct_end
  63  0010              #pragma debug union_end
文件：init.h       编译器版本 HGASM 0202 页次36

  63  0010              #pragma debug union_end
  63  0010              #pragma debug variable 76 1 ___tm0c0 "__tm0c0" 1
  63  0010              #pragma debug struct_end
  63  0010              #pragma debug struct_end
  63  0010              #pragma debug union_end
  63  0010              #pragma debug union_end
  63  0010              #pragma debug variable 78 1 ___tm0c1 "__tm0c1" 1
  63  0010              #pragma debug variable 8 1 ___tm0al "__tm0al" 1
  63  0010              #pragma debug variable 8 1 ___tm0ah "__tm0ah" 1
  63  0010              #pragma debug struct_end
  63  0010              #pragma debug struct_end
  63  0010              #pragma debug union_end
  63  0010              #pragma debug union_end
  63  0010              #pragma debug variable 80 1 ___cpc "__cpc" 1
  63  0010              #pragma debug struct_end
  63  0010              #pragma debug struct_end
  63  0010              #pragma debug union_end
  63  0010              #pragma debug union_end
  63  0010              #pragma debug variable 82 1 ___pc "__pc" 1
  63  0010              #pragma debug struct_end
  63  0010              #pragma debug struct_end
  63  0010              #pragma debug union_end
  63  0010              #pragma debug union_end
  63  0010              #pragma debug variable 84 1 ___pcc "__pcc" 1
  63  0010              #pragma debug struct_end
  63  0010              #pragma debug struct_end
  63  0010              #pragma debug union_end
  63  0010              #pragma debug union_end
  63  0010              #pragma debug variable 86 1 ___pcpu "__pcpu" 1
  63  0010              #pragma debug variable 8 1 ___iar1 "__iar1" 1
  63  0010              extern r1:byte
  63  0010              extern r2:byte
  63  0010              extern r3:byte
  63  0010              extern r4:byte
  63  0010              extern r5:byte
  63  0010              extern r6:byte
  63  0010              extern r7:byte

 553  0010              #line 553 "e:\f12-ht66f018\adc_polling\src\main.c"
 553  0000              @code .section at 0 'code'
 553  0000  2800     R  	jmp _main_startup1
 553  0001              
 553  0001              extern _ADC_GetChannelValue:near
 553  0001              extern _ADC_Init:near
 553  0001              extern _builtin_holtek_udivmodhi4_2:byte
 553  0001              extern _builtin_holtek_udivmodhi4:near
 553  0001              
 553  0001              ; 
 553  0001              ; Generated by holtek-gcc v3.19, Tue Jan 11 09:53:18 2022
 553  0001              ; Rebuild 718
 553  0001              ; end of file


        0 Errors, 0