文件：init_ht66f018.c 编译器版本 HGASM 0202 页次1


   1  0000              ; Generated by holtek-gcc v3.19, Fri Jan 28 13:56:47 2022
   2  0000              ; 
   3  0000              ; Configuration:
   4  0000              ;       without long instruction
   5  0000              ;       Single ROM, Multi-RAM
   6  0000              ;       bits_per_rom_unit:16
   7  0000              ;       with mp1
   8  0000              ;       with tbhp, address(0x9)
   9  0000              ;          Use tabrd-const
  10  0000              ;       
  11  0000              ;       
  12  0000              ;       
  13  0000              ; use 'tabrdc' instead of 'tabrd'
  14  0000              ;       
  15  0000              
  16  0000              #pragma translator "holtek-gcc 4.6.4" "3.19" "build 20130711"
  17  0000              ; Rebuild 718
  18  0000              
  19  0000              ir equ [2]
  20  0000              mp equ [3]
  21  0000              sbp equ [1]
  22  0000              acc equ [5]
  23  0000              bp equ [4]
  24  0000              tblp equ [7]
  25  0000              tbhp equ [9]
  26  0000              status equ [10]
  27  0000              c equ [10].0
  28  0000              ac equ [10].1
  29  0000              z equ [10].2
  30  0000              ov equ [10].3
  31  0000              intc equ [11]
  32  0000              
  33  0000              extern ra:byte
  34  0000              extern rb:byte
  35  0000              extern rc:byte
  36  0000              extern rd:byte
  37  0000              extern re:byte
  38  0000              extern rf:byte
  39  0000              extern rg:byte
  40  0000              extern rh:byte
  41  0000              extern _Crom2Prom:near
  42  0000              extern _Crom2PromNext:near
  43  0000              
  44  0000              RAMBANK 0 @HCCINIT, @HCCINIT0
  45  0000              
  46  0000              RAMBANK 0 @BITDATASEC, @BITDATASEC1
  47  0000              @HCCINIT	.section 'data'
  48  0000              @HCCINIT0	.section 'data'
  49  0000              @BITDATASEC	 .section 'data'
  50  0000              @BITDATASEC1	 .section 'data'
  51  0000              
  52  0000              #pragma debug scope 1 1
  53  0000              	extern __DELAY3:near
  54  0000              	extern __DELAYX3:near
  55  0000              	extern __DELAYX6:near
  56  0000              	extern __DELAYY5:near
  57  0000              	extern __DELAYY3:near
  58  0000              	extern _builtin_holtek_delay_2:byte
  59  0000              public _WDT_Init
文件：init_ht66f018.ASM 编译器版本 HGASM 0202 页次2

  60  0000              #pragma debug scope 2 1

  15  0000              #line 15 "e:\ht66f018_f12\f12-test-20220114\init_ht66f018.c"
  15  0000              _WDT_Init .section 'code'
  15  0000              _WDT_Init proc
  15  0000  0003        	ret
  15  0001              _WDT_Init endp
  15  0001              #line 15 "e:\ht66f018_f12\f12-test-20220114\init_ht66f018.c"
  15  0001              #pragma debug scope 1 1
  15  0001              public _TimeBase_Init
  15  0001              #pragma debug scope 3 1
  45  0001              #line 45 "e:\ht66f018_f12\f12-test-20220114\init_ht66f018.c"
  45  0000              _TimeBase_Init .section 'code'
  45  0000              _TimeBase_Init proc
  45  0000  0003        	ret
  45  0001              _TimeBase_Init endp
  45  0001              #line 45 "e:\ht66f018_f12\f12-test-20220114\init_ht66f018.c"
  45  0001              #pragma debug scope 1 1
  45  0001              ___adcr1 equ [35]
  45  0001              ___adcr0 equ [34]
  45  0001              public _ADC_Init
  45  0001              #pragma debug scope 4 1
 144  0001              #line 144 "e:\ht66f018_f12\f12-test-20220114\init_ht66f018.c"
 144  0000              _ADC_Init .section 'code'
 144  0000              _ADC_Init proc
 164  0000              #line 164 "e:\ht66f018_f12\f12-test-20220114\init_ht66f018.c"
 164  0000  3523        	clr [35].2
 164  0001  30A3        	set [35].1
 164  0002  3023        	set [35].0
 189  0003              #line 189 "e:\ht66f018_f12\f12-test-20220114\init_ht66f018.c"
 189  0003  3222        	set [34].4
 203  0004              #line 203 "e:\ht66f018_f12\f12-test-20220114\init_ht66f018.c"
 203  0004  3623        	clr [35].4
 203  0005  0003        	ret
 203  0006              _ADC_Init endp
 203  0006              #line 203 "e:\ht66f018_f12\f12-test-20220114\init_ht66f018.c"
 203  0006              #pragma debug scope 1 1
 203  0006              ___acerl equ [36]
 203  0006              public _ADC_SelectChannel
 203  0006              #pragma debug scope 5 1
 222  0006              #line 222 "e:\ht66f018_f12\f12-test-20220114\init_ht66f018.c"
 222  0000              _ADC_SelectChannel .section 'code'
 222  0000              _ADC_SelectChannel proc
 222  0000  00              local _ADC_SelectChannel_2 db 1 dup(?)	; 0,1
 222  0000  0080     R  	mov _ADC_SelectChannel_2[0],a
 222  0001              #pragma debug variable 8 5 _ADC_SelectChannel_2+0 "ADC_Channel"
 223  0001              #line 223 "e:\ht66f018_f12\f12-test-20220114\init_ht66f018.c"
 223  0001  37A3        	clr [35].7
 224  0002              #line 224 "e:\ht66f018_f12\f12-test-20220114\init_ht66f018.c"
 224  0002  0F07        	mov a,7
 224  0003  0200     R  	sub a,_ADC_SelectChannel_2[0]
 224  0004  380A        	snz c
 224  0005  2800     R  	jmp _L5
 227  0006              #line 227 "e:\ht66f018_f12\f12-test-20220114\init_ht66f018.c"
 227  0006  0FF8        	mov a,248
 227  0007  06A2        	andm a,[34]
 230  0008              #line 230 "e:\ht66f018_f12\f12-test-20220114\init_ht66f018.c"
 230  0008  0700     R  	mov a,_ADC_SelectChannel_2[0]
 230  0009  05A2        	orm a,[34]
 233  000A              #line 233 "e:\ht66f018_f12\f12-test-20220114\init_ht66f018.c"
文件：init_ht66f018.c 编译器版本 HGASM 0202 页次3

 233  000A  0F01        	mov a,1
 233  000B  00A4        	mov [36],a
 234  000C              #line 234 "e:\ht66f018_f12\f12-test-20220114\init_ht66f018.c"
 234  000C  0724        	mov a,[36]
 234  000D  0080     E  	mov rb,a
 234  000E  1F00     E  	clr rc
 234  000F  1400     R  	inca _ADC_SelectChannel_2[0]
 234  0010  2800     R  	jmp _LI1
 234  0011              _LI2:
 234  0011  340A        	clr c
 234  0012  1A80     E  	rlc rb
 234  0013  1A80     E  	rlc rc
 234  0014              _LI1:
 234  0014  1785        	sdz acc
 234  0015  2800     R  	jmp _LI2
 234  0016  0700     E  	mov a,rb
 234  0017  00A4        	mov [36],a
 234  0018  2800     R  	jmp _L4
 234  0019              _L5:
 239  0019              #line 239 "e:\ht66f018_f12\f12-test-20220114\init_ht66f018.c"
 239  0019  3323        	set [35].6
 240  001A              #line 240 "e:\ht66f018_f12\f12-test-20220114\init_ht66f018.c"
 240  001A  33A3        	set [35].7
 240  001B              _L4:
 240  001B  0003        	ret
 240  001C              _ADC_SelectChannel endp
 240  001C              #line 240 "e:\ht66f018_f12\f12-test-20220114\init_ht66f018.c"
 240  001C              #pragma debug scope 1 1
 240  001C              ___adrh equ [33]
 240  001C              ___adrl equ [32]
 240  001C              public _ADC_GetValue
 240  001C              #pragma debug scope 6 1
 251  001C              #line 251 "e:\ht66f018_f12\f12-test-20220114\init_ht66f018.c"
 251  0000              _ADC_GetValue .section 'code'
 251  0000              _ADC_GetValue proc
 255  0000              #line 255 "e:\ht66f018_f12\f12-test-20220114\init_ht66f018.c"
 255  0000  37A2        	clr [34].7
 255  0001  33A2        	set [34].7
 255  0002  37A2        	clr [34].7
 255  0003              _L10:
 258  0003              #line 258 "e:\ht66f018_f12\f12-test-20220114\init_ht66f018.c"
 258  0003  3F22        	sz [34].6
 258  0004  2800     R  	jmp _L10
 264  0005              #line 264 "e:\ht66f018_f12\f12-test-20220114\init_ht66f018.c"
 264  0005  0721        	mov a,[33]
 264  0006  0080     E  	mov rc,a
 264  0007  1F00     E  	clr rb
 275  0008              #line 275 "e:\ht66f018_f12\f12-test-20220114\init_ht66f018.c"
 275  0008  0700     E  	mov a,rc
 275  0009  0080     E  	mov re,a
 275  000A  0720        	mov a,[32]
 275  000B  0500     E  	or a,rb
 275  000C  0080     E  	mov rd,a
 275  000D  0700     E  	mov a,rd
 275  000E  0080     E  	mov ra,a
 275  000F  0700     E  	mov a,re
 275  0010  0080     E  	mov rb,a
 275  0011  0003        	ret
 275  0012              _ADC_GetValue endp
 275  0012              #line 275 "e:\ht66f018_f12\f12-test-20220114\init_ht66f018.c"
文件：init_ht66f018.c 编译器版本 HGASM 0202 页次4

 275  0012              #pragma debug scope 1 1
 275  0012              public _ADC_GetChannelValue
 275  0012              #pragma debug scope 7 1
 288  0012              #line 288 "e:\ht66f018_f12\f12-test-20220114\init_ht66f018.c"
 288  0000              _ADC_GetChannelValue .section 'code'
 288  0000              _ADC_GetChannelValue proc
 288  0000  00              local _ADC_GetChannelValue_2 db 1 dup(?)	; 0,1
 288  0000  0080     R  	mov _ADC_GetChannelValue_2[0],a
 288  0001              #pragma debug variable 8 7 _ADC_GetChannelValue_2+0 "ADC_Channel"
 291  0001              #line 291 "e:\ht66f018_f12\f12-test-20220114\init_ht66f018.c"
 291  0001  37A3        	clr [35].7
 292  0002              #line 292 "e:\ht66f018_f12\f12-test-20220114\init_ht66f018.c"
 292  0002  0F07        	mov a,7
 292  0003  0200     R  	sub a,_ADC_GetChannelValue_2[0]
 292  0004  380A        	snz c
 292  0005  2800     R  	jmp _L12
 295  0006              #line 295 "e:\ht66f018_f12\f12-test-20220114\init_ht66f018.c"
 295  0006  0FF8        	mov a,248
 295  0007  06A2        	andm a,[34]
 298  0008              #line 298 "e:\ht66f018_f12\f12-test-20220114\init_ht66f018.c"
 298  0008  0700     R  	mov a,_ADC_GetChannelValue_2[0]
 298  0009  05A2        	orm a,[34]
 301  000A              #line 301 "e:\ht66f018_f12\f12-test-20220114\init_ht66f018.c"
 301  000A  0F01        	mov a,1
 301  000B  00A4        	mov [36],a
 302  000C              #line 302 "e:\ht66f018_f12\f12-test-20220114\init_ht66f018.c"
 302  000C  0724        	mov a,[36]
 302  000D  0080     E  	mov rb,a
 302  000E  1F00     E  	clr rc
 302  000F  1400     R  	inca _ADC_GetChannelValue_2[0]
 302  0010  2800     R  	jmp _LI3
 302  0011              _LI4:
 302  0011  340A        	clr c
 302  0012  1A80     E  	rlc rb
 302  0013  1A80     E  	rlc rc
 302  0014              _LI3:
 302  0014  1785        	sdz acc
 302  0015  2800     R  	jmp _LI4
 302  0016  0700     E  	mov a,rb
 302  0017  00A4        	mov [36],a
 302  0018  2800     R  	jmp _L13
 302  0019              _L12:
 307  0019              #line 307 "e:\ht66f018_f12\f12-test-20220114\init_ht66f018.c"
 307  0019  3323        	set [35].6
 308  001A              #line 308 "e:\ht66f018_f12\f12-test-20220114\init_ht66f018.c"
 308  001A  33A3        	set [35].7
 308  001B              _L13:
 312  001B              #line 312 "e:\ht66f018_f12\f12-test-20220114\init_ht66f018.c"
 312  001B  37A2        	clr [34].7
 312  001C  33A2        	set [34].7
 312  001D  37A2        	clr [34].7
 312  001E              _L15:
 315  001E              #line 315 "e:\ht66f018_f12\f12-test-20220114\init_ht66f018.c"
 315  001E  3F22        	sz [34].6
 315  001F  2800     R  	jmp _L15
 321  0020              #line 321 "e:\ht66f018_f12\f12-test-20220114\init_ht66f018.c"
 321  0020  0721        	mov a,[33]
 321  0021  0080     E  	mov rc,a
 321  0022  1F00     E  	clr rb
 333  0023              #line 333 "e:\ht66f018_f12\f12-test-20220114\init_ht66f018.c"
文件：init_ht66f018.c 编译器版本 HGASM 0202 页次5

 333  0023  0700     E  	mov a,rc
 333  0024  0080     E  	mov re,a
 333  0025  0720        	mov a,[32]
 333  0026  0500     E  	or a,rb
 333  0027  0080     E  	mov rd,a
 333  0028  0700     E  	mov a,rd
 333  0029  0080     E  	mov ra,a
 333  002A  0700     E  	mov a,re
 333  002B  0080     E  	mov rb,a
 333  002C  0003        	ret
 333  002D              _ADC_GetChannelValue endp
 333  002D              #line 333 "e:\ht66f018_f12\f12-test-20220114\init_ht66f018.c"
 333  002D              #pragma debug scope 1 1
 333  002D              public _Delay_ms
 333  002D              #pragma debug scope 8 1
 339  002D              #line 339 "e:\ht66f018_f12\f12-test-20220114\init_ht66f018.c"
 339  0000              _Delay_ms .section 'code'
 339  0000              _Delay_ms proc
 339  0000              public _Delay_ms_2
 339  0000  0002[           local _Delay_ms_2 db 2 dup(?)	; 2,0
            00
            ]
 339  0002              #pragma debug variable 12 8 _Delay_ms_2+0 "ms"
 340  0002              #line 340 "e:\ht66f018_f12\f12-test-20220114\init_ht66f018.c"
 340  0000  2800     R  	jmp _L17
 340  0001              _L18:
 342  0001              #line 342 "e:\ht66f018_f12\f12-test-20220114\init_ht66f018.c"
 342  0001              ;# 342 "e:\ht66f018_f12\f12-test-20220114\init_ht66f018.c" 1
 342  0001              	IF 2000>263690
 342  0001              ;# 342 "e:\ht66f018_f12\f12-test-20220114\init_ht66f018.c" 1
 342  0001              	ERRMESSAGE 'the value 2000of the argument exceeds the maxinum 263690'
 342  0001              	ENDIF
 342  0001              ;# 342 "e:\ht66f018_f12\f12-test-20220114\init_ht66f018.c" 1
 342  0001              	IF 2000<0
 342  0001              ;# 342 "e:\ht66f018_f12\f12-test-20220114\init_ht66f018.c" 1
 342  0001              	ERRMESSAGE 'the value 2000 of the argument exceeds the mininum 0'
 342  0001              	ENDIF
 342  0001              ;# 342 "e:\ht66f018_f12\f12-test-20220114\init_ht66f018.c" 1
 342  0001              	IF 2000==0
 342  0001              ;# 342 "e:\ht66f018_f12\f12-test-20220114\init_ht66f018.c" 1
 342  0001              	JMP $
 342  0001              	ENDIF
 342  0001              ;# 342 "e:\ht66f018_f12\f12-test-20220114\init_ht66f018.c" 1
 342  0001              	IF 2000==1
 342  0001              ;# 342 "e:\ht66f018_f12\f12-test-20220114\init_ht66f018.c" 1
 342  0001              	NOP
 342  0001              	ENDIF
 342  0001              ;# 342 "e:\ht66f018_f12\f12-test-20220114\init_ht66f018.c" 1
 342  0001              	IF 2000==2
 342  0001              ;# 342 "e:\ht66f018_f12\f12-test-20220114\init_ht66f018.c" 1
 342  0001              	NOP
 342  0001              ;# 342 "e:\ht66f018_f12\f12-test-20220114\init_ht66f018.c" 1
 342  0001              	NOP
 342  0001              	ENDIF
 342  0001              ;# 342 "e:\ht66f018_f12\f12-test-20220114\init_ht66f018.c" 1
 342  0001              	IF 2000==3
 342  0001              ;# 342 "e:\ht66f018_f12\f12-test-20220114\init_ht66f018.c" 1
 342  0001              	NOP
 342  0001              ;# 342 "e:\ht66f018_f12\f12-test-20220114\init_ht66f018.c" 1
 342  0001              	NOP
文件：init_ht66f018.c 编译器版本 HGASM 0202 页次6

 342  0001              ;# 342 "e:\ht66f018_f12\f12-test-20220114\init_ht66f018.c" 1
 342  0001              	NOP
 342  0001              	ENDIF
 342  0001              ;# 342 "e:\ht66f018_f12\f12-test-20220114\init_ht66f018.c" 1
 342  0001              	IF (2000<8) AND (2000>3)
 342  0001              ;# 342 "e:\ht66f018_f12\f12-test-20220114\init_ht66f018.c" 1
 342  0001              	CALL __DELAY3 + 7 -2000
 342  0001              	ENDIF
 342  0001              ;# 342 "e:\ht66f018_f12\f12-test-20220114\init_ht66f018.c" 1
 342  0001              	IF (2000< 0404h) AND (2000>7)
 342  0001              ;# 342 "e:\ht66f018_f12\f12-test-20220114\init_ht66f018.c" 1
 342  0001              	MOV A,2000/4-1
 342  0001              ;# 342 "e:\ht66f018_f12\f12-test-20220114\init_ht66f018.c" 1
 342  0001              	CALL __DELAYX3 + 3 -(2000 MOD 4)
 342  0001              	ENDIF
 342  0001              ;# 342 "e:\ht66f018_f12\f12-test-20220114\init_ht66f018.c" 1
 342  0001              	IF (2000< 0x40B) AND (2000> 0403h)
 342  0001              ;# 342 "e:\ht66f018_f12\f12-test-20220114\init_ht66f018.c" 1
 342  0001              	MOV A,0 
 342  0001              ;# 342 "e:\ht66f018_f12\f12-test-20220114\init_ht66f018.c" 1
 342  0001              	CALL __DELAYX6 + 0x40a -2000
 342  0001              	ENDIF
 342  0001              ;# 342 "e:\ht66f018_f12\f12-test-20220114\init_ht66f018.c" 1
 342  0001              	IF (2000 >= 0x40b) AND ((((2000-9)%0402h)/4+1)>256)
 342  0001              ;# 342 "e:\ht66f018_f12\f12-test-20220114\init_ht66f018.c" 1
 342  0001              	MOV A,(2000-9)/0402h
 342  0001              ;# 342 "e:\ht66f018_f12\f12-test-20220114\init_ht66f018.c" 1
 342  0001              	MOV _builtin_holtek_delay_2,A
 342  0001              ;# 342 "e:\ht66f018_f12\f12-test-20220114\init_ht66f018.c" 1
 342  0001              	MOV A,0
 342  0001              ;# 342 "e:\ht66f018_f12\f12-test-20220114\init_ht66f018.c" 1
 342  0001              	CALL __DELAYY5 +5- (((2000-9)%0402h)%6)
 342  0001              	ENDIF
 342  0001              ;# 342 "e:\ht66f018_f12\f12-test-20220114\init_ht66f018.c" 1
 342  0001              	IF (2000 >= 0x40b) AND ((((2000-9)%0402h)/4+1)<=256)
 342  0001              ;# 342 "e:\ht66f018_f12\f12-test-20220114\init_ht66f018.c" 1
 342  0001  0F01        	MOV A,(2000-9)/0402h
 342  0002              ;# 342 "e:\ht66f018_f12\f12-test-20220114\init_ht66f018.c" 1
 342  0002  0080     E  	MOV _builtin_holtek_delay_2,A
 342  0003              ;# 342 "e:\ht66f018_f12\f12-test-20220114\init_ht66f018.c" 1
 342  0003  0FF2        	MOV A,((2000-9)%0402h)/4+1
 342  0004              ;# 342 "e:\ht66f018_f12\f12-test-20220114\init_ht66f018.c" 1
 342  0004  2000     E  	CALL __DELAYY3 +3-(((2000-9)%0402h)%4)
 342  0005              	ENDIF
 342  0005              _L17:
 340  0005              #line 340 "e:\ht66f018_f12\f12-test-20220114\init_ht66f018.c"
 340  0005  0FFF        	mov a,255
 340  0006  0380     R  	addm a,_Delay_ms_2[0]
 340  0007  0FFF        	mov a,255
 340  0008  1380     R  	adcm a,_Delay_ms_2[1]
 340  0009  0700     R  	mov a,_Delay_ms_2[0]
 340  000A  0600     R  	and a,_Delay_ms_2[1]
 340  000B  0B01        	add a,1
 340  000C  380A        	snz c
 340  000D  2800     R  	jmp _L18
 340  000E  0003        	ret
 340  000F              _Delay_ms endp
 340  000F              #line 340 "e:\ht66f018_f12\f12-test-20220114\init_ht66f018.c"
 340  000F              #pragma debug scope 1 1
 340  000F              ___pac equ [21]
文件：init_ht66f018.c 编译器版本 HGASM 0202 页次7

 340  000F              ___papu equ [22]
 340  000F              ___pa equ [20]
 340  000F              public _GPIOA_INIT
 340  000F              #pragma debug scope 9 1
 351  000F              #line 351 "e:\ht66f018_f12\f12-test-20220114\init_ht66f018.c"
 351  0000              _GPIOA_INIT .section 'code'
 351  0000              _GPIOA_INIT proc
 351  0000              public _GPIOA_INIT_2
 351  0000  0004[           local _GPIOA_INIT_2 db 4 dup(?)	; 3,1
            00
            ]
 351  0000  0080     R  	mov _GPIOA_INIT_2[3],a
 351  0001              #pragma debug variable 8 9 _GPIOA_INIT_2+3 "GPIO_Pin"
 351  0001              #pragma debug variable 8 9 _GPIOA_INIT_2+0 "GPIO_Mode"
 351  0001              #pragma debug variable 8 9 _GPIOA_INIT_2+1 "wakeup"
 351  0001              #pragma debug variable 8 9 _GPIOA_INIT_2+2 "GPIO_BitVal"
 352  0001              #line 352 "e:\ht66f018_f12\f12-test-20220114\init_ht66f018.c"
 352  0001  1700     R  	sdza _GPIOA_INIT_2[0]
 352  0002  2800     R  	jmp _L20
 354  0003              #line 354 "e:\ht66f018_f12\f12-test-20220114\init_ht66f018.c"
 354  0003  0700     R  	mov a,_GPIOA_INIT_2[3]
 354  0004  0595        	orm a,[21]
 355  0005              #line 355 "e:\ht66f018_f12\f12-test-20220114\init_ht66f018.c"
 355  0005  0700     R  	mov a,_GPIOA_INIT_2[3]
 355  0006  0596        	orm a,[22]
 355  0007  2800     R  	jmp _L21
 355  0008              _L20:
 359  0008              #line 359 "e:\ht66f018_f12\f12-test-20220114\init_ht66f018.c"
 359  0008  0100     R  	cpla _GPIOA_INIT_2[3]
 359  0009  0080     E  	mov ra,a
 359  000A  0700     E  	mov a,ra
 359  000B  0695        	andm a,[21]
 360  000C              #line 360 "e:\ht66f018_f12\f12-test-20220114\init_ht66f018.c"
 360  000C  0700     E  	mov a,ra
 360  000D  0696        	andm a,[22]
 360  000E              _L21:
 363  000E              #line 363 "e:\ht66f018_f12\f12-test-20220114\init_ht66f018.c"
 363  000E  1080     R  	sz _GPIOA_INIT_2[2]
 363  000F  2800     R  	jmp _LI5
 363  0010  2800     R  	jmp _L22
 363  0011              _LI5:
 365  0011              #line 365 "e:\ht66f018_f12\f12-test-20220114\init_ht66f018.c"
 365  0011  0700     R  	mov a,_GPIOA_INIT_2[3]
 365  0012  0594        	orm a,[20]
 365  0013  2800     R  	jmp _L19
 365  0014              _L22:
 369  0014              #line 369 "e:\ht66f018_f12\f12-test-20220114\init_ht66f018.c"
 369  0014  0100     R  	cpla _GPIOA_INIT_2[3]
 369  0015  0080     E  	mov ra,a
 369  0016  0700     E  	mov a,ra
 369  0017  0694        	andm a,[20]
 369  0018              _L19:
 369  0018  0003        	ret
 369  0019              _GPIOA_INIT endp
 369  0019              #line 369 "e:\ht66f018_f12\f12-test-20220114\init_ht66f018.c"
 369  0019              #pragma debug scope 1 1
 369  0019              ___pbc equ [38]
 369  0019              ___pbpu equ [39]
 369  0019              ___pb equ [37]
 369  0019              public _GPIOB_INIT
文件：init_ht66f018.c 编译器版本 HGASM 0202 页次8

 369  0019              #pragma debug scope 10 1
 375  0019              #line 375 "e:\ht66f018_f12\f12-test-20220114\init_ht66f018.c"
 375  0000              _GPIOB_INIT .section 'code'
 375  0000              _GPIOB_INIT proc
 375  0000              public _GPIOB_INIT_2
 375  0000  0003[           local _GPIOB_INIT_2 db 3 dup(?)	; 2,1
            00
            ]
 375  0000  0080     R  	mov _GPIOB_INIT_2[2],a
 375  0001              #pragma debug variable 8 10 _GPIOB_INIT_2+2 "GPIO_Pin"
 375  0001              #pragma debug variable 8 10 _GPIOB_INIT_2+0 "GPIO_Mode"
 375  0001              #pragma debug variable 8 10 _GPIOB_INIT_2+1 "GPIO_BitVal"
 377  0001              #line 377 "e:\ht66f018_f12\f12-test-20220114\init_ht66f018.c"
 377  0001  1700     R  	sdza _GPIOB_INIT_2[0]
 377  0002  2800     R  	jmp _L25
 379  0003              #line 379 "e:\ht66f018_f12\f12-test-20220114\init_ht66f018.c"
 379  0003  0700     R  	mov a,_GPIOB_INIT_2[2]
 379  0004  05A6        	orm a,[38]
 380  0005              #line 380 "e:\ht66f018_f12\f12-test-20220114\init_ht66f018.c"
 380  0005  0700     R  	mov a,_GPIOB_INIT_2[2]
 380  0006  05A7        	orm a,[39]
 380  0007  2800     R  	jmp _L26
 380  0008              _L25:
 384  0008              #line 384 "e:\ht66f018_f12\f12-test-20220114\init_ht66f018.c"
 384  0008  0100     R  	cpla _GPIOB_INIT_2[2]
 384  0009  0080     E  	mov ra,a
 384  000A  0700     E  	mov a,ra
 384  000B  06A6        	andm a,[38]
 385  000C              #line 385 "e:\ht66f018_f12\f12-test-20220114\init_ht66f018.c"
 385  000C  0700     E  	mov a,ra
 385  000D  06A7        	andm a,[39]
 385  000E              _L26:
 388  000E              #line 388 "e:\ht66f018_f12\f12-test-20220114\init_ht66f018.c"
 388  000E  1080     R  	sz _GPIOB_INIT_2[1]
 388  000F  2800     R  	jmp _LI6
 388  0010  2800     R  	jmp _L27
 388  0011              _LI6:
 390  0011              #line 390 "e:\ht66f018_f12\f12-test-20220114\init_ht66f018.c"
 390  0011  0700     R  	mov a,_GPIOB_INIT_2[2]
 390  0012  05A5        	orm a,[37]
 390  0013  2800     R  	jmp _L24
 390  0014              _L27:
 394  0014              #line 394 "e:\ht66f018_f12\f12-test-20220114\init_ht66f018.c"
 394  0014  0100     R  	cpla _GPIOB_INIT_2[2]
 394  0015  0080     E  	mov ra,a
 394  0016  0700     E  	mov a,ra
 394  0017  06A5        	andm a,[37]
 394  0018              _L24:
 394  0018  0003        	ret
 394  0019              _GPIOB_INIT endp
 394  0019              #line 394 "e:\ht66f018_f12\f12-test-20220114\init_ht66f018.c"
 394  0019              #pragma debug scope 1 1
 394  0019              ___pcc equ [65]
 394  0019              ___pcpu equ [66]
 394  0019              ___pc equ [64]
 394  0019              public _GPIOC_INIT
 394  0019              #pragma debug scope 11 1
 399  0019              #line 399 "e:\ht66f018_f12\f12-test-20220114\init_ht66f018.c"
 399  0000              _GPIOC_INIT .section 'code'
 399  0000              _GPIOC_INIT proc
文件：init_ht66f018.c 编译器版本 HGASM 0202 页次9

 399  0000              public _GPIOC_INIT_2
 399  0000  0003[           local _GPIOC_INIT_2 db 3 dup(?)	; 2,1
            00
            ]
 399  0000  0080     R  	mov _GPIOC_INIT_2[2],a
 399  0001              #pragma debug variable 8 11 _GPIOC_INIT_2+2 "GPIO_Pin"
 399  0001              #pragma debug variable 8 11 _GPIOC_INIT_2+0 "GPIO_Mode"
 399  0001              #pragma debug variable 8 11 _GPIOC_INIT_2+1 "GPIO_BitVal"
 401  0001              #line 401 "e:\ht66f018_f12\f12-test-20220114\init_ht66f018.c"
 401  0001  1700     R  	sdza _GPIOC_INIT_2[0]
 401  0002  2800     R  	jmp _L30
 403  0003              #line 403 "e:\ht66f018_f12\f12-test-20220114\init_ht66f018.c"
 403  0003  0700     R  	mov a,_GPIOC_INIT_2[2]
 403  0004  05C1        	orm a,[65]
 404  0005              #line 404 "e:\ht66f018_f12\f12-test-20220114\init_ht66f018.c"
 404  0005  0700     R  	mov a,_GPIOC_INIT_2[2]
 404  0006  05C2        	orm a,[66]
 404  0007  2800     R  	jmp _L31
 404  0008              _L30:
 408  0008              #line 408 "e:\ht66f018_f12\f12-test-20220114\init_ht66f018.c"
 408  0008  0100     R  	cpla _GPIOC_INIT_2[2]
 408  0009  0080     E  	mov ra,a
 408  000A  0700     E  	mov a,ra
 408  000B  06C1        	andm a,[65]
 409  000C              #line 409 "e:\ht66f018_f12\f12-test-20220114\init_ht66f018.c"
 409  000C  0700     E  	mov a,ra
 409  000D  06C2        	andm a,[66]
 409  000E              _L31:
 412  000E              #line 412 "e:\ht66f018_f12\f12-test-20220114\init_ht66f018.c"
 412  000E  1080     R  	sz _GPIOC_INIT_2[1]
 412  000F  2800     R  	jmp _LI7
 412  0010  2800     R  	jmp _L32
 412  0011              _LI7:
 414  0011              #line 414 "e:\ht66f018_f12\f12-test-20220114\init_ht66f018.c"
 414  0011  0700     R  	mov a,_GPIOC_INIT_2[2]
 414  0012  05C0        	orm a,[64]
 414  0013  2800     R  	jmp _L29
 414  0014              _L32:
 418  0014              #line 418 "e:\ht66f018_f12\f12-test-20220114\init_ht66f018.c"
 418  0014  0100     R  	cpla _GPIOC_INIT_2[2]
 418  0015  0080     E  	mov ra,a
 418  0016  0700     E  	mov a,ra
 418  0017  06C0        	andm a,[64]
 418  0018              _L29:
 418  0018  0003        	ret
 418  0019              _GPIOC_INIT endp
 418  0019              #line 418 "e:\ht66f018_f12\f12-test-20220114\init_ht66f018.c"
 418  0019              #pragma debug scope 1 1
 418  0019              ___bp equ [4]
 418  0019              ___mp1 equ [3]
 418  0019              ___iar1 equ [2]
 418  0019              public _clr_ram_en
 418  0019              #pragma debug scope 12 1
 427  0019              #line 427 "e:\ht66f018_f12\f12-test-20220114\init_ht66f018.c"
 427  0000              _clr_ram_en .section 'code'
 427  0000              _clr_ram_en proc
 427  0000  00              local _clr_ram_en_2 db 1 dup(?)	; 0,1
 427  0000  0080     E  	mov ra,a
 427  0001  0080     R  	mov _clr_ram_en_2[0],a
 427  0002              #pragma debug variable 8 12 _clr_ram_en_2+0 "t"
文件：init_ht66f018.c 编译器版本 HGASM 0202 页次10

 428  0002              #line 428 "e:\ht66f018_f12\f12-test-20220114\init_ht66f018.c"
 428  0002  0F01        	mov a,1
 428  0003  0680     E  	andm a,ra
 428  0004  3404        	clr [4].0
 428  0005  0700     E  	mov a,ra
 428  0006  0584        	orm a,[4]
 429  0007              #line 429 "e:\ht66f018_f12\f12-test-20220114\init_ht66f018.c"
 429  0007  0F80        	mov a,128
 429  0008  0083        	mov [3],a
 430  0009              #line 430 "e:\ht66f018_f12\f12-test-20220114\init_ht66f018.c"
 430  0009  2800     R  	jmp _L35
 430  000A              _L36:
 432  000A              #line 432 "e:\ht66f018_f12\f12-test-20220114\init_ht66f018.c"
 432  000A  1F02        	clr [2]
 433  000B              #line 433 "e:\ht66f018_f12\f12-test-20220114\init_ht66f018.c"
 433  000B  1483        	inc [3]
 433  000C              _L35:
 430  000C              #line 430 "e:\ht66f018_f12\f12-test-20220114\init_ht66f018.c"
 430  000C  1083        	sz [3]
 430  000D  2800     R  	jmp _L36
 430  000E  0003        	ret
 430  000F              _clr_ram_en endp
 430  000F              #line 430 "e:\ht66f018_f12\f12-test-20220114\init_ht66f018.c"
 430  000F              #pragma debug scope 1 1
 430  000F              ___smod equ [11]
 430  000F              ___wdtc equ [26]
 430  000F              ___tmpc equ [25]
 430  000F              ___cpc equ [62]
 430  000F              ___integ equ [13]
 430  000F              ___intc0 equ [14]
 430  000F              ___tm0c0 equ [47]
 430  000F              ___tm0c1 equ [48]
 430  000F              ___tm0al equ [51]
 430  000F              ___tm0ah equ [52]
 430  000F              ___mfi0 equ [17]
 430  000F              ___tm1c0 equ [54]
 430  000F              ___tm1c1 equ [55]
 430  000F              ___tm1al equ [58]
 430  000F              ___tm1ah equ [59]
 430  000F              ___mfi1 equ [18]
 430  000F              ___intc1 equ [15]
 430  000F              public _Init_clock
 430  000F              #pragma debug scope 13 1
 441  000F              #line 441 "e:\ht66f018_f12\f12-test-20220114\init_ht66f018.c"
 441  0000              _Init_clock .section 'code'
 441  0000              _Init_clock proc
 442  0000              #line 442 "e:\ht66f018_f12\f12-test-20220114\init_ht66f018.c"
 442  0000  0F01        	mov a,1
 442  0001  008B        	mov [11],a
 442  0002              _L39:
 443  0002              #line 443 "e:\ht66f018_f12\f12-test-20220114\init_ht66f018.c"
 443  0002  390B        	snz [11].2
 443  0003  2800     R  	jmp _L39
 444  0004              #line 444 "e:\ht66f018_f12\f12-test-20220114\init_ht66f018.c"
 444  0004  0F57        	mov a,87
 444  0005  009A        	mov [26],a
 445  0006              #line 445 "e:\ht66f018_f12\f12-test-20220114\init_ht66f018.c"
 445  0006  1F24        	clr [36]
 446  0007              #line 446 "e:\ht66f018_f12\f12-test-20220114\init_ht66f018.c"
 446  0007  1F19        	clr [25]
文件：init_ht66f018.c 编译器版本 HGASM 0202 页次11

 447  0008              #line 447 "e:\ht66f018_f12\f12-test-20220114\init_ht66f018.c"
 447  0008  0F08        	mov a,8
 447  0009  00BE        	mov [62],a
 448  000A              #line 448 "e:\ht66f018_f12\f12-test-20220114\init_ht66f018.c"
 448  000A  1F0D        	clr [13]
 449  000B              #line 449 "e:\ht66f018_f12\f12-test-20220114\init_ht66f018.c"
 449  000B  348E        	clr [14].1
 450  000C              #line 450 "e:\ht66f018_f12\f12-test-20220114\init_ht66f018.c"
 450  000C  340E        	clr [14].0
 453  000D              #line 453 "e:\ht66f018_f12\f12-test-20220114\init_ht66f018.c"
 453  000D  1F2F        	clr [47]
 454  000E              #line 454 "e:\ht66f018_f12\f12-test-20220114\init_ht66f018.c"
 454  000E  0FC1        	mov a,193
 454  000F  00B0        	mov [48],a
 455  0010              #line 455 "e:\ht66f018_f12\f12-test-20220114\init_ht66f018.c"
 455  0010  0F20        	mov a,32
 455  0011  00B3        	mov [51],a
 456  0012              #line 456 "e:\ht66f018_f12\f12-test-20220114\init_ht66f018.c"
 456  0012  0F4E        	mov a,78
 456  0013  00B4        	mov [52],a
 457  0014              #line 457 "e:\ht66f018_f12\f12-test-20220114\init_ht66f018.c"
 457  0014  3691        	clr [17].5
 458  0015              #line 458 "e:\ht66f018_f12\f12-test-20220114\init_ht66f018.c"
 458  0015  31AF        	set [47].3
 459  0016              #line 459 "e:\ht66f018_f12\f12-test-20220114\init_ht66f018.c"
 459  0016  318E        	set [14].3
 460  0017              #line 460 "e:\ht66f018_f12\f12-test-20220114\init_ht66f018.c"
 460  0017  3091        	set [17].1
 463  0018              #line 463 "e:\ht66f018_f12\f12-test-20220114\init_ht66f018.c"
 463  0018  0F10        	mov a,16
 463  0019  00B6        	mov [54],a
 464  001A              #line 464 "e:\ht66f018_f12\f12-test-20220114\init_ht66f018.c"
 464  001A  0FC1        	mov a,193
 464  001B  00B7        	mov [55],a
 465  001C              #line 465 "e:\ht66f018_f12\f12-test-20220114\init_ht66f018.c"
 465  001C  0F20        	mov a,32
 465  001D  00BA        	mov [58],a
 466  001E              #line 466 "e:\ht66f018_f12\f12-test-20220114\init_ht66f018.c"
 466  001E  0F03        	mov a,3
 466  001F  00BB        	mov [59],a
 467  0020              #line 467 "e:\ht66f018_f12\f12-test-20220114\init_ht66f018.c"
 467  0020  3692        	clr [18].5
 468  0021              #line 468 "e:\ht66f018_f12\f12-test-20220114\init_ht66f018.c"
 468  0021  31B6        	set [54].3
 469  0022              #line 469 "e:\ht66f018_f12\f12-test-20220114\init_ht66f018.c"
 469  0022  300F        	set [15].0
 470  0023              #line 470 "e:\ht66f018_f12\f12-test-20220114\init_ht66f018.c"
 470  0023  3092        	set [18].1
 477  0024              #line 477 "e:\ht66f018_f12\f12-test-20220114\init_ht66f018.c"
 477  0024  300E        	set [14].0
 479  0025              #line 479 "e:\ht66f018_f12\f12-test-20220114\init_ht66f018.c"
 479  0025              ;# 479 "e:\ht66f018_f12\f12-test-20220114\init_ht66f018.c" 1
 479  0025  0001        	clr wdt
 480  0026              #line 480 "e:\ht66f018_f12\f12-test-20220114\init_ht66f018.c"
 480  0026  0F00        	mov a,0
 480  0027  2000     R  	call _clr_ram_en
 481  0028              #line 481 "e:\ht66f018_f12\f12-test-20220114\init_ht66f018.c"
 481  0028  0F01        	mov a,1
 481  0029  2000     R  	call _clr_ram_en
 481  002A  0003        	ret
文件：init_ht66f018.c 编译器版本 HGASM 0202 页次12

 481  002B              _Init_clock endp
 481  002B              #line 481 "e:\ht66f018_f12\f12-test-20220114\init_ht66f018.c"
 481  002B              #pragma debug scope 1 1
 481  002B              public _UART_SoftWareSendByte
 481  002B              #pragma debug scope 14 1
 488  002B              #line 488 "e:\ht66f018_f12\f12-test-20220114\init_ht66f018.c"
 488  0000              _UART_SoftWareSendByte .section 'code'
 488  0000              _UART_SoftWareSendByte proc
 488  0000  00              local _UART_SoftWareSendByte_2 db 1 dup(?)	; 0,1
 488  0000  0080     R  	mov _UART_SoftWareSendByte_2[0],a
 488  0001              #pragma debug variable 8 14 _UART_SoftWareSendByte_2+0 "TxData"
 490  0001              #line 490 "e:\ht66f018_f12\f12-test-20220114\init_ht66f018.c"
 490  0001  3714        	clr [20].6
 491  0002              #line 491 "e:\ht66f018_f12\f12-test-20220114\init_ht66f018.c"
 491  0002              ;# 491 "e:\ht66f018_f12\f12-test-20220114\init_ht66f018.c" 1
 491  0002              	IF 193>263690
 491  0002              ;# 491 "e:\ht66f018_f12\f12-test-20220114\init_ht66f018.c" 1
 491  0002              	ERRMESSAGE 'the value 193of the argument exceeds the maxinum 263690'
 491  0002              	ENDIF
 491  0002              ;# 491 "e:\ht66f018_f12\f12-test-20220114\init_ht66f018.c" 1
 491  0002              	IF 193<0
 491  0002              ;# 491 "e:\ht66f018_f12\f12-test-20220114\init_ht66f018.c" 1
 491  0002              	ERRMESSAGE 'the value 193 of the argument exceeds the mininum 0'
 491  0002              	ENDIF
 491  0002              ;# 491 "e:\ht66f018_f12\f12-test-20220114\init_ht66f018.c" 1
 491  0002              	IF 193==0
 491  0002              ;# 491 "e:\ht66f018_f12\f12-test-20220114\init_ht66f018.c" 1
 491  0002              	JMP $
 491  0002              	ENDIF
 491  0002              ;# 491 "e:\ht66f018_f12\f12-test-20220114\init_ht66f018.c" 1
 491  0002              	IF 193==1
 491  0002              ;# 491 "e:\ht66f018_f12\f12-test-20220114\init_ht66f018.c" 1
 491  0002              	NOP
 491  0002              	ENDIF
 491  0002              ;# 491 "e:\ht66f018_f12\f12-test-20220114\init_ht66f018.c" 1
 491  0002              	IF 193==2
 491  0002              ;# 491 "e:\ht66f018_f12\f12-test-20220114\init_ht66f018.c" 1
 491  0002              	NOP
 491  0002              ;# 491 "e:\ht66f018_f12\f12-test-20220114\init_ht66f018.c" 1
 491  0002              	NOP
 491  0002              	ENDIF
 491  0002              ;# 491 "e:\ht66f018_f12\f12-test-20220114\init_ht66f018.c" 1
 491  0002              	IF 193==3
 491  0002              ;# 491 "e:\ht66f018_f12\f12-test-20220114\init_ht66f018.c" 1
 491  0002              	NOP
 491  0002              ;# 491 "e:\ht66f018_f12\f12-test-20220114\init_ht66f018.c" 1
 491  0002              	NOP
 491  0002              ;# 491 "e:\ht66f018_f12\f12-test-20220114\init_ht66f018.c" 1
 491  0002              	NOP
 491  0002              	ENDIF
 491  0002              ;# 491 "e:\ht66f018_f12\f12-test-20220114\init_ht66f018.c" 1
 491  0002              	IF (193<8) AND (193>3)
 491  0002              ;# 491 "e:\ht66f018_f12\f12-test-20220114\init_ht66f018.c" 1
 491  0002              	CALL __DELAY3 + 7 -193
 491  0002              	ENDIF
 491  0002              ;# 491 "e:\ht66f018_f12\f12-test-20220114\init_ht66f018.c" 1
 491  0002              	IF (193< 0404h) AND (193>7)
 491  0002              ;# 491 "e:\ht66f018_f12\f12-test-20220114\init_ht66f018.c" 1
 491  0002  0F2F        	MOV A,193/4-1
 491  0003              ;# 491 "e:\ht66f018_f12\f12-test-20220114\init_ht66f018.c" 1
文件：init_ht66f018.c 编译器版本 HGASM 0202 页次13

 491  0003  2000     E  	CALL __DELAYX3 + 3 -(193 MOD 4)
 491  0004              	ENDIF
 491  0004              ;# 491 "e:\ht66f018_f12\f12-test-20220114\init_ht66f018.c" 1
 491  0004              	IF (193< 0x40B) AND (193> 0403h)
 491  0004              ;# 491 "e:\ht66f018_f12\f12-test-20220114\init_ht66f018.c" 1
 491  0004              	MOV A,0 
 491  0004              ;# 491 "e:\ht66f018_f12\f12-test-20220114\init_ht66f018.c" 1
 491  0004              	CALL __DELAYX6 + 0x40a -193
 491  0004              	ENDIF
 491  0004              ;# 491 "e:\ht66f018_f12\f12-test-20220114\init_ht66f018.c" 1
 491  0004              	IF (193 >= 0x40b) AND ((((193-9)%0402h)/4+1)>256)
 491  0004              ;# 491 "e:\ht66f018_f12\f12-test-20220114\init_ht66f018.c" 1
 491  0004              	MOV A,(193-9)/0402h
 491  0004              ;# 491 "e:\ht66f018_f12\f12-test-20220114\init_ht66f018.c" 1
 491  0004              	MOV _builtin_holtek_delay_2,A
 491  0004              ;# 491 "e:\ht66f018_f12\f12-test-20220114\init_ht66f018.c" 1
 491  0004              	MOV A,0
 491  0004              ;# 491 "e:\ht66f018_f12\f12-test-20220114\init_ht66f018.c" 1
 491  0004              	CALL __DELAYY5 +5- (((193-9)%0402h)%6)
 491  0004              	ENDIF
 491  0004              ;# 491 "e:\ht66f018_f12\f12-test-20220114\init_ht66f018.c" 1
 491  0004              	IF (193 >= 0x40b) AND ((((193-9)%0402h)/4+1)<=256)
 491  0004              ;# 491 "e:\ht66f018_f12\f12-test-20220114\init_ht66f018.c" 1
 491  0004              	MOV A,(193-9)/0402h
 491  0004              ;# 491 "e:\ht66f018_f12\f12-test-20220114\init_ht66f018.c" 1
 491  0004              	MOV _builtin_holtek_delay_2,A
 491  0004              ;# 491 "e:\ht66f018_f12\f12-test-20220114\init_ht66f018.c" 1
 491  0004              	MOV A,((193-9)%0402h)/4+1
 491  0004              ;# 491 "e:\ht66f018_f12\f12-test-20220114\init_ht66f018.c" 1
 491  0004              	CALL __DELAYY3 +3-(((193-9)%0402h)%4)
 491  0004              	ENDIF
 491  0004  0F08        	mov a,8
 491  0005  0080     E  	mov ra,a
 491  0006              _L44:
 495  0006              #line 495 "e:\ht66f018_f12\f12-test-20220114\init_ht66f018.c"
 495  0006  3800     R  	snz _UART_SoftWareSendByte_2[0].0
 495  0007  2800     R  	jmp _L41
 497  0008              #line 497 "e:\ht66f018_f12\f12-test-20220114\init_ht66f018.c"
 497  0008  3314        	set [20].6
 497  0009  2800     R  	jmp _L42
 497  000A              _L41:
 501  000A              #line 501 "e:\ht66f018_f12\f12-test-20220114\init_ht66f018.c"
 501  000A  3714        	clr [20].6
 501  000B              _L42:
 503  000B              #line 503 "e:\ht66f018_f12\f12-test-20220114\init_ht66f018.c"
 503  000B              ;# 503 "e:\ht66f018_f12\f12-test-20220114\init_ht66f018.c" 1
 503  000B              	IF 193>263690
 503  000B              ;# 503 "e:\ht66f018_f12\f12-test-20220114\init_ht66f018.c" 1
 503  000B              	ERRMESSAGE 'the value 193of the argument exceeds the maxinum 263690'
 503  000B              	ENDIF
 503  000B              ;# 503 "e:\ht66f018_f12\f12-test-20220114\init_ht66f018.c" 1
 503  000B              	IF 193<0
 503  000B              ;# 503 "e:\ht66f018_f12\f12-test-20220114\init_ht66f018.c" 1
 503  000B              	ERRMESSAGE 'the value 193 of the argument exceeds the mininum 0'
 503  000B              	ENDIF
 503  000B              ;# 503 "e:\ht66f018_f12\f12-test-20220114\init_ht66f018.c" 1
 503  000B              	IF 193==0
 503  000B              ;# 503 "e:\ht66f018_f12\f12-test-20220114\init_ht66f018.c" 1
 503  000B              	JMP $
 503  000B              	ENDIF
文件：init_ht66f018.c 编译器版本 HGASM 0202 页次14

 503  000B              ;# 503 "e:\ht66f018_f12\f12-test-20220114\init_ht66f018.c" 1
 503  000B              	IF 193==1
 503  000B              ;# 503 "e:\ht66f018_f12\f12-test-20220114\init_ht66f018.c" 1
 503  000B              	NOP
 503  000B              	ENDIF
 503  000B              ;# 503 "e:\ht66f018_f12\f12-test-20220114\init_ht66f018.c" 1
 503  000B              	IF 193==2
 503  000B              ;# 503 "e:\ht66f018_f12\f12-test-20220114\init_ht66f018.c" 1
 503  000B              	NOP
 503  000B              ;# 503 "e:\ht66f018_f12\f12-test-20220114\init_ht66f018.c" 1
 503  000B              	NOP
 503  000B              	ENDIF
 503  000B              ;# 503 "e:\ht66f018_f12\f12-test-20220114\init_ht66f018.c" 1
 503  000B              	IF 193==3
 503  000B              ;# 503 "e:\ht66f018_f12\f12-test-20220114\init_ht66f018.c" 1
 503  000B              	NOP
 503  000B              ;# 503 "e:\ht66f018_f12\f12-test-20220114\init_ht66f018.c" 1
 503  000B              	NOP
 503  000B              ;# 503 "e:\ht66f018_f12\f12-test-20220114\init_ht66f018.c" 1
 503  000B              	NOP
 503  000B              	ENDIF
 503  000B              ;# 503 "e:\ht66f018_f12\f12-test-20220114\init_ht66f018.c" 1
 503  000B              	IF (193<8) AND (193>3)
 503  000B              ;# 503 "e:\ht66f018_f12\f12-test-20220114\init_ht66f018.c" 1
 503  000B              	CALL __DELAY3 + 7 -193
 503  000B              	ENDIF
 503  000B              ;# 503 "e:\ht66f018_f12\f12-test-20220114\init_ht66f018.c" 1
 503  000B              	IF (193< 0404h) AND (193>7)
 503  000B              ;# 503 "e:\ht66f018_f12\f12-test-20220114\init_ht66f018.c" 1
 503  000B  0F2F        	MOV A,193/4-1
 503  000C              ;# 503 "e:\ht66f018_f12\f12-test-20220114\init_ht66f018.c" 1
 503  000C  2000     E  	CALL __DELAYX3 + 3 -(193 MOD 4)
 503  000D              	ENDIF
 503  000D              ;# 503 "e:\ht66f018_f12\f12-test-20220114\init_ht66f018.c" 1
 503  000D              	IF (193< 0x40B) AND (193> 0403h)
 503  000D              ;# 503 "e:\ht66f018_f12\f12-test-20220114\init_ht66f018.c" 1
 503  000D              	MOV A,0 
 503  000D              ;# 503 "e:\ht66f018_f12\f12-test-20220114\init_ht66f018.c" 1
 503  000D              	CALL __DELAYX6 + 0x40a -193
 503  000D              	ENDIF
 503  000D              ;# 503 "e:\ht66f018_f12\f12-test-20220114\init_ht66f018.c" 1
 503  000D              	IF (193 >= 0x40b) AND ((((193-9)%0402h)/4+1)>256)
 503  000D              ;# 503 "e:\ht66f018_f12\f12-test-20220114\init_ht66f018.c" 1
 503  000D              	MOV A,(193-9)/0402h
 503  000D              ;# 503 "e:\ht66f018_f12\f12-test-20220114\init_ht66f018.c" 1
 503  000D              	MOV _builtin_holtek_delay_2,A
 503  000D              ;# 503 "e:\ht66f018_f12\f12-test-20220114\init_ht66f018.c" 1
 503  000D              	MOV A,0
 503  000D              ;# 503 "e:\ht66f018_f12\f12-test-20220114\init_ht66f018.c" 1
 503  000D              	CALL __DELAYY5 +5- (((193-9)%0402h)%6)
 503  000D              	ENDIF
 503  000D              ;# 503 "e:\ht66f018_f12\f12-test-20220114\init_ht66f018.c" 1
 503  000D              	IF (193 >= 0x40b) AND ((((193-9)%0402h)/4+1)<=256)
 503  000D              ;# 503 "e:\ht66f018_f12\f12-test-20220114\init_ht66f018.c" 1
 503  000D              	MOV A,(193-9)/0402h
 503  000D              ;# 503 "e:\ht66f018_f12\f12-test-20220114\init_ht66f018.c" 1
 503  000D              	MOV _builtin_holtek_delay_2,A
 503  000D              ;# 503 "e:\ht66f018_f12\f12-test-20220114\init_ht66f018.c" 1
 503  000D              	MOV A,((193-9)%0402h)/4+1
 503  000D              ;# 503 "e:\ht66f018_f12\f12-test-20220114\init_ht66f018.c" 1
文件：init_ht66f018.c 编译器版本 HGASM 0202 页次15

 503  000D              	CALL __DELAYY3 +3-(((193-9)%0402h)%4)
 503  000D              	ENDIF
 504  000D              #line 504 "e:\ht66f018_f12\f12-test-20220114\init_ht66f018.c"
 504  000D  340A        	clr c
 504  000E  1B80     R  	rrc _UART_SoftWareSendByte_2[0]
 504  000F  1780     E  	sdz ra
 504  0010  2800     R  	jmp _L44
 506  0011              #line 506 "e:\ht66f018_f12\f12-test-20220114\init_ht66f018.c"
 506  0011  3314        	set [20].6
 507  0012              #line 507 "e:\ht66f018_f12\f12-test-20220114\init_ht66f018.c"
 507  0012              ;# 507 "e:\ht66f018_f12\f12-test-20220114\init_ht66f018.c" 1
 507  0012              	IF 193>263690
 507  0012              ;# 507 "e:\ht66f018_f12\f12-test-20220114\init_ht66f018.c" 1
 507  0012              	ERRMESSAGE 'the value 193of the argument exceeds the maxinum 263690'
 507  0012              	ENDIF
 507  0012              ;# 507 "e:\ht66f018_f12\f12-test-20220114\init_ht66f018.c" 1
 507  0012              	IF 193<0
 507  0012              ;# 507 "e:\ht66f018_f12\f12-test-20220114\init_ht66f018.c" 1
 507  0012              	ERRMESSAGE 'the value 193 of the argument exceeds the mininum 0'
 507  0012              	ENDIF
 507  0012              ;# 507 "e:\ht66f018_f12\f12-test-20220114\init_ht66f018.c" 1
 507  0012              	IF 193==0
 507  0012              ;# 507 "e:\ht66f018_f12\f12-test-20220114\init_ht66f018.c" 1
 507  0012              	JMP $
 507  0012              	ENDIF
 507  0012              ;# 507 "e:\ht66f018_f12\f12-test-20220114\init_ht66f018.c" 1
 507  0012              	IF 193==1
 507  0012              ;# 507 "e:\ht66f018_f12\f12-test-20220114\init_ht66f018.c" 1
 507  0012              	NOP
 507  0012              	ENDIF
 507  0012              ;# 507 "e:\ht66f018_f12\f12-test-20220114\init_ht66f018.c" 1
 507  0012              	IF 193==2
 507  0012              ;# 507 "e:\ht66f018_f12\f12-test-20220114\init_ht66f018.c" 1
 507  0012              	NOP
 507  0012              ;# 507 "e:\ht66f018_f12\f12-test-20220114\init_ht66f018.c" 1
 507  0012              	NOP
 507  0012              	ENDIF
 507  0012              ;# 507 "e:\ht66f018_f12\f12-test-20220114\init_ht66f018.c" 1
 507  0012              	IF 193==3
 507  0012              ;# 507 "e:\ht66f018_f12\f12-test-20220114\init_ht66f018.c" 1
 507  0012              	NOP
 507  0012              ;# 507 "e:\ht66f018_f12\f12-test-20220114\init_ht66f018.c" 1
 507  0012              	NOP
 507  0012              ;# 507 "e:\ht66f018_f12\f12-test-20220114\init_ht66f018.c" 1
 507  0012              	NOP
 507  0012              	ENDIF
 507  0012              ;# 507 "e:\ht66f018_f12\f12-test-20220114\init_ht66f018.c" 1
 507  0012              	IF (193<8) AND (193>3)
 507  0012              ;# 507 "e:\ht66f018_f12\f12-test-20220114\init_ht66f018.c" 1
 507  0012              	CALL __DELAY3 + 7 -193
 507  0012              	ENDIF
 507  0012              ;# 507 "e:\ht66f018_f12\f12-test-20220114\init_ht66f018.c" 1
 507  0012              	IF (193< 0404h) AND (193>7)
 507  0012              ;# 507 "e:\ht66f018_f12\f12-test-20220114\init_ht66f018.c" 1
 507  0012  0F2F        	MOV A,193/4-1
 507  0013              ;# 507 "e:\ht66f018_f12\f12-test-20220114\init_ht66f018.c" 1
 507  0013  2000     E  	CALL __DELAYX3 + 3 -(193 MOD 4)
 507  0014              	ENDIF
 507  0014              ;# 507 "e:\ht66f018_f12\f12-test-20220114\init_ht66f018.c" 1
 507  0014              	IF (193< 0x40B) AND (193> 0403h)
文件：init_ht66f018.c 编译器版本 HGASM 0202 页次16

 507  0014              ;# 507 "e:\ht66f018_f12\f12-test-20220114\init_ht66f018.c" 1
 507  0014              	MOV A,0 
 507  0014              ;# 507 "e:\ht66f018_f12\f12-test-20220114\init_ht66f018.c" 1
 507  0014              	CALL __DELAYX6 + 0x40a -193
 507  0014              	ENDIF
 507  0014              ;# 507 "e:\ht66f018_f12\f12-test-20220114\init_ht66f018.c" 1
 507  0014              	IF (193 >= 0x40b) AND ((((193-9)%0402h)/4+1)>256)
 507  0014              ;# 507 "e:\ht66f018_f12\f12-test-20220114\init_ht66f018.c" 1
 507  0014              	MOV A,(193-9)/0402h
 507  0014              ;# 507 "e:\ht66f018_f12\f12-test-20220114\init_ht66f018.c" 1
 507  0014              	MOV _builtin_holtek_delay_2,A
 507  0014              ;# 507 "e:\ht66f018_f12\f12-test-20220114\init_ht66f018.c" 1
 507  0014              	MOV A,0
 507  0014              ;# 507 "e:\ht66f018_f12\f12-test-20220114\init_ht66f018.c" 1
 507  0014              	CALL __DELAYY5 +5- (((193-9)%0402h)%6)
 507  0014              	ENDIF
 507  0014              ;# 507 "e:\ht66f018_f12\f12-test-20220114\init_ht66f018.c" 1
 507  0014              	IF (193 >= 0x40b) AND ((((193-9)%0402h)/4+1)<=256)
 507  0014              ;# 507 "e:\ht66f018_f12\f12-test-20220114\init_ht66f018.c" 1
 507  0014              	MOV A,(193-9)/0402h
 507  0014              ;# 507 "e:\ht66f018_f12\f12-test-20220114\init_ht66f018.c" 1
 507  0014              	MOV _builtin_holtek_delay_2,A
 507  0014              ;# 507 "e:\ht66f018_f12\f12-test-20220114\init_ht66f018.c" 1
 507  0014              	MOV A,((193-9)%0402h)/4+1
 507  0014              ;# 507 "e:\ht66f018_f12\f12-test-20220114\init_ht66f018.c" 1
 507  0014              	CALL __DELAYY3 +3-(((193-9)%0402h)%4)
 507  0014              	ENDIF
 507  0014  0003        	ret
 507  0015              _UART_SoftWareSendByte endp
 507  0015              #line 507 "e:\ht66f018_f12\f12-test-20220114\init_ht66f018.c"
 507  0015              #pragma debug scope 1 1
 507  0015              #pragma debug variable 8 1 ___mp1 "__mp1" 1
 507  0015              #pragma debug struct_end
 507  0015              #pragma debug struct_end
 507  0015              #pragma debug union_end
 507  0015              #pragma debug union_end
 507  0015              #pragma debug variable 43 1 ___bp "__bp" 1
 507  0015              #pragma debug struct_end
 507  0015              #pragma debug struct_end
 507  0015              #pragma debug union_end
 507  0015              #pragma debug union_end
 507  0015              #pragma debug variable 45 1 ___smod "__smod" 1
 507  0015              #pragma debug struct_end
 507  0015              #pragma debug struct_end
 507  0015              #pragma debug union_end
 507  0015              #pragma debug union_end
 507  0015              #pragma debug variable 47 1 ___integ "__integ" 1
 507  0015              #pragma debug struct_end
 507  0015              #pragma debug struct_end
 507  0015              #pragma debug union_end
 507  0015              #pragma debug union_end
 507  0015              #pragma debug variable 49 1 ___intc0 "__intc0" 1
 507  0015              #pragma debug struct_end
 507  0015              #pragma debug struct_end
 507  0015              #pragma debug union_end
 507  0015              #pragma debug union_end
 507  0015              #pragma debug variable 51 1 ___intc1 "__intc1" 1
 507  0015              #pragma debug struct_end
 507  0015              #pragma debug struct_end
 507  0015              #pragma debug union_end
文件：init_ht66f018.c 编译器版本 HGASM 0202 页次17

 507  0015              #pragma debug union_end
 507  0015              #pragma debug variable 53 1 ___mfi0 "__mfi0" 1
 507  0015              #pragma debug struct_end
 507  0015              #pragma debug struct_end
 507  0015              #pragma debug union_end
 507  0015              #pragma debug union_end
 507  0015              #pragma debug variable 55 1 ___mfi1 "__mfi1" 1
 507  0015              #pragma debug struct_end
 507  0015              #pragma debug struct_end
 507  0015              #pragma debug union_end
 507  0015              #pragma debug union_end
 507  0015              #pragma debug variable 57 1 ___pa "__pa" 1
 507  0015              #pragma debug struct_end
 507  0015              #pragma debug struct_end
 507  0015              #pragma debug union_end
 507  0015              #pragma debug union_end
 507  0015              #pragma debug variable 59 1 ___pac "__pac" 1
 507  0015              #pragma debug struct_end
 507  0015              #pragma debug struct_end
 507  0015              #pragma debug union_end
 507  0015              #pragma debug union_end
 507  0015              #pragma debug variable 61 1 ___papu "__papu" 1
 507  0015              #pragma debug struct_end
 507  0015              #pragma debug struct_end
 507  0015              #pragma debug union_end
 507  0015              #pragma debug union_end
 507  0015              #pragma debug variable 63 1 ___tmpc "__tmpc" 1
 507  0015              #pragma debug struct_end
 507  0015              #pragma debug struct_end
 507  0015              #pragma debug union_end
 507  0015              #pragma debug union_end
 507  0015              #pragma debug variable 65 1 ___wdtc "__wdtc" 1
 507  0015              #pragma debug variable 8 1 ___adrl "__adrl" 1
 507  0015              #pragma debug variable 8 1 ___adrh "__adrh" 1
 507  0015              #pragma debug struct_end
 507  0015              #pragma debug struct_end
 507  0015              #pragma debug union_end
 507  0015              #pragma debug union_end
 507  0015              #pragma debug variable 67 1 ___adcr0 "__adcr0" 1
 507  0015              #pragma debug struct_end
 507  0015              #pragma debug struct_end
 507  0015              #pragma debug union_end
 507  0015              #pragma debug union_end
 507  0015              #pragma debug variable 69 1 ___adcr1 "__adcr1" 1
 507  0015              #pragma debug struct_end
 507  0015              #pragma debug struct_end
 507  0015              #pragma debug union_end
 507  0015              #pragma debug union_end
 507  0015              #pragma debug variable 71 1 ___acerl "__acerl" 1
 507  0015              #pragma debug struct_end
 507  0015              #pragma debug struct_end
 507  0015              #pragma debug union_end
 507  0015              #pragma debug union_end
 507  0015              #pragma debug variable 73 1 ___pb "__pb" 1
 507  0015              #pragma debug struct_end
 507  0015              #pragma debug struct_end
 507  0015              #pragma debug union_end
 507  0015              #pragma debug union_end
 507  0015              #pragma debug variable 75 1 ___pbc "__pbc" 1
 507  0015              #pragma debug struct_end
文件：init_ht66f018.c 编译器版本 HGASM 0202 页次18

 507  0015              #pragma debug struct_end
 507  0015              #pragma debug union_end
 507  0015              #pragma debug union_end
 507  0015              #pragma debug variable 77 1 ___pbpu "__pbpu" 1
 507  0015              #pragma debug struct_end
 507  0015              #pragma debug struct_end
 507  0015              #pragma debug union_end
 507  0015              #pragma debug union_end
 507  0015              #pragma debug variable 79 1 ___tm0c0 "__tm0c0" 1
 507  0015              #pragma debug struct_end
 507  0015              #pragma debug struct_end
 507  0015              #pragma debug union_end
 507  0015              #pragma debug union_end
 507  0015              #pragma debug variable 81 1 ___tm0c1 "__tm0c1" 1
 507  0015              #pragma debug variable 8 1 ___tm0al "__tm0al" 1
 507  0015              #pragma debug variable 8 1 ___tm0ah "__tm0ah" 1
 507  0015              #pragma debug struct_end
 507  0015              #pragma debug struct_end
 507  0015              #pragma debug union_end
 507  0015              #pragma debug union_end
 507  0015              #pragma debug variable 83 1 ___tm1c0 "__tm1c0" 1
 507  0015              #pragma debug struct_end
 507  0015              #pragma debug struct_end
 507  0015              #pragma debug union_end
 507  0015              #pragma debug union_end
 507  0015              #pragma debug variable 85 1 ___tm1c1 "__tm1c1" 1
 507  0015              #pragma debug variable 8 1 ___tm1al "__tm1al" 1
 507  0015              #pragma debug variable 8 1 ___tm1ah "__tm1ah" 1
 507  0015              #pragma debug struct_end
 507  0015              #pragma debug struct_end
 507  0015              #pragma debug union_end
 507  0015              #pragma debug union_end
 507  0015              #pragma debug variable 87 1 ___cpc "__cpc" 1
 507  0015              #pragma debug struct_end
 507  0015              #pragma debug struct_end
 507  0015              #pragma debug union_end
 507  0015              #pragma debug union_end
 507  0015              #pragma debug variable 89 1 ___pc "__pc" 1
 507  0015              #pragma debug struct_end
 507  0015              #pragma debug struct_end
 507  0015              #pragma debug union_end
 507  0015              #pragma debug union_end
 507  0015              #pragma debug variable 91 1 ___pcc "__pcc" 1
 507  0015              #pragma debug struct_end
 507  0015              #pragma debug struct_end
 507  0015              #pragma debug union_end
 507  0015              #pragma debug union_end
 507  0015              #pragma debug variable 93 1 ___pcpu "__pcpu" 1
 507  0015              #pragma debug variable 8 1 ___iar1 "__iar1" 1
 507  0015              
 507  0015              ; 
 507  0015              ; Generated by holtek-gcc v3.19, Fri Jan 28 13:56:47 2022
 507  0015              ; Rebuild 718
 507  0015              ; end of file


        0 Errors, 0