文件：record_control.c 编译器版本 HGASM 0202 页次1


   1  0000              ; Generated by holtek-gcc v3.19, Fri Jan 28 13:56:48 2022
   2  0000              ; 
   3  0000              ; Configuration:
   4  0000              ;       without long instruction
   5  0000              ;       Single ROM, Multi-RAM
   6  0000              ;       bits_per_rom_unit:16
   7  0000              ;       with mp1
   8  0000              ;       with tbhp, address(0x9)
   9  0000              ;          Use tabrd-const
  10  0000              ;       
  11  0000              ;       
  12  0000              ;       
  13  0000              ; use 'tabrdc' instead of 'tabrd'
  14  0000              ;       
  15  0000              
  16  0000              #pragma translator "holtek-gcc 4.6.4" "3.19" "build 20130711"
  17  0000              ; Rebuild 718
  18  0000              
  19  0000              ir equ [2]
  20  0000              mp equ [3]
  21  0000              sbp equ [1]
  22  0000              acc equ [5]
  23  0000              bp equ [4]
  24  0000              tblp equ [7]
  25  0000              tbhp equ [9]
  26  0000              status equ [10]
  27  0000              c equ [10].0
  28  0000              ac equ [10].1
  29  0000              z equ [10].2
  30  0000              ov equ [10].3
  31  0000              intc equ [11]
  32  0000              
  33  0000              extern ra:byte
  34  0000              extern rb:byte
  35  0000              extern rc:byte
  36  0000              extern rd:byte
  37  0000              extern re:byte
  38  0000              extern rf:byte
  39  0000              extern rg:byte
  40  0000              extern rh:byte
  41  0000              extern _Crom2Prom:near
  42  0000              extern _Crom2PromNext:near
  43  0000              
  44  0000              RAMBANK 0 @HCCINIT, @HCCINIT0
  45  0000              
  46  0000              RAMBANK 0 @BITDATASEC, @BITDATASEC1
  47  0000              @HCCINIT	.section 'data'
  48  0000              @HCCINIT0	.section 'data'
  49  0000              @BITDATASEC	 .section 'data'
  50  0000              @BITDATASEC1	 .section 'data'
  51  0000              
  52  0000              #pragma debug scope 1 1
  53  0000              	extern __DELAY3:near
  54  0000              	extern __DELAYX3:near
  55  0000              	extern __DELAYX6:near
  56  0000              	extern __DELAYY5:near
  57  0000              	extern __DELAYY3:near
  58  0000              	extern _builtin_holtek_delay_2:byte
  59  0000              public _use_delay_us
文件：record_control.ASM 编译器版本 HGASM 0202 页次2

  60  0000              #pragma debug scope 2 1

  10  0000              #line 10 "e:\ht66f018_f12\f12-test-20220114\record_control.c"
  10  0000              _use_delay_us .section 'code'
  10  0000              _use_delay_us proc
  10  0000              public _use_delay_us_2
  10  0000  0002[           local _use_delay_us_2 db 2 dup(?)	; 2,0
            00
            ]
  10  0002              #pragma debug variable 12 2 _use_delay_us_2+0 "us_s"
  11  0002              #line 11 "e:\ht66f018_f12\f12-test-20220114\record_control.c"
  11  0000  1F00     R  	clr _user_delay_time[0]
  11  0001  1F00     R  	clr _user_delay_time[1]
  12  0002              #line 12 "e:\ht66f018_f12\f12-test-20220114\record_control.c"
  12  0002  0F01        	mov a,1
  12  0003  0080     R  	mov _user_delay_flag[0],a
  12  0004              _L3:
  13  0004              #line 13 "e:\ht66f018_f12\f12-test-20220114\record_control.c"
  13  0004  0700     R  	mov a,_use_delay_us_2[0]
  13  0005  0200     R  	sub a,_user_delay_time[0]
  13  0006  0700     R  	mov a,_use_delay_us_2[1]
  13  0007  1200     R  	sbc a,_user_delay_time[1]
  13  0008  3C0A        	sz c
  13  0009  2800     R  	jmp _L3
  17  000A              #line 17 "e:\ht66f018_f12\f12-test-20220114\record_control.c"
  17  000A  1F00     R  	clr _user_delay_flag[0]
  18  000B              #line 18 "e:\ht66f018_f12\f12-test-20220114\record_control.c"
  18  000B  1F00     R  	clr _user_delay_time[0]
  18  000C  1F00     R  	clr _user_delay_time[1]
  18  000D  0003        	ret
  18  000E              _use_delay_us endp
  18  000E              #line 18 "e:\ht66f018_f12\f12-test-20220114\record_control.c"
  18  000E              #pragma debug scope 1 1
  18  000E              ___pb equ [37]
  18  000E              public _set_voice
  18  000E              #pragma debug scope 3 1
  22  000E              #line 22 "e:\ht66f018_f12\f12-test-20220114\record_control.c"
  22  0000              _set_voice .section 'code'
  22  0000              _set_voice proc
  22  0000  0002[           local _set_voice_2 db 2 dup(?)	; 0,2
            00
            ]
  22  0000  0080     R  	mov _set_voice_2[0],a
  22  0001              #pragma debug variable 8 3 _set_voice_2+0 "date_v"
  26  0001              #line 26 "e:\ht66f018_f12\f12-test-20220114\record_control.c"
  26  0001  35A5        	clr [37].3
  27  0002              #line 27 "e:\ht66f018_f12\f12-test-20220114\record_control.c"
  27  0002  0F28        	mov a,40
  27  0003  0080     R  	mov _use_delay_us_2[0],a
  27  0004  1F00     R  	clr _use_delay_us_2[1]
  27  0005  2000     R  	call _use_delay_us
  28  0006              #line 28 "e:\ht66f018_f12\f12-test-20220114\record_control.c"
  28  0006  31A5        	set [37].3
  29  0007              #line 29 "e:\ht66f018_f12\f12-test-20220114\record_control.c"
  29  0007  0F28        	mov a,40
  29  0008  0080     R  	mov _use_delay_us_2[0],a
  29  0009  1F00     R  	clr _use_delay_us_2[1]
  29  000A  2000     R  	call _use_delay_us
  30  000B              #line 30 "e:\ht66f018_f12\f12-test-20220114\record_control.c"
  30  000B  35A5        	clr [37].3
文件：record_control.c 编译器版本 HGASM 0202 页次3

  31  000C              #line 31 "e:\ht66f018_f12\f12-test-20220114\record_control.c"
  31  000C  0F05        	mov a,5
  31  000D  0080     R  	mov _use_delay_us_2[0],a
  31  000E  1F00     R  	clr _use_delay_us_2[1]
  31  000F  2000     R  	call _use_delay_us
  31  0010  0F08        	mov a,8
  31  0011  0080     R  	mov _set_voice_2[1],a
  31  0012              _L9:
  35  0012              #line 35 "e:\ht66f018_f12\f12-test-20220114\record_control.c"
  35  0012  3800     R  	snz _set_voice_2[0].0
  35  0013  2800     R  	jmp _L6
  38  0014              #line 38 "e:\ht66f018_f12\f12-test-20220114\record_control.c"
  38  0014  31A5        	set [37].3
  39  0015              #line 39 "e:\ht66f018_f12\f12-test-20220114\record_control.c"
  39  0015  0F14        	mov a,20
  39  0016  0080     R  	mov _use_delay_us_2[0],a
  39  0017  1F00     R  	clr _use_delay_us_2[1]
  39  0018  2800     R  	jmp _L10
  39  0019              _L6:
  46  0019              #line 46 "e:\ht66f018_f12\f12-test-20220114\record_control.c"
  46  0019  31A5        	set [37].3
  47  001A              #line 47 "e:\ht66f018_f12\f12-test-20220114\record_control.c"
  47  001A  0F0A        	mov a,10
  47  001B  0080     R  	mov _use_delay_us_2[0],a
  47  001C  1F00     R  	clr _use_delay_us_2[1]
  47  001D              _L10:
  47  001D  2000     R  	call _use_delay_us
  48  001E              #line 48 "e:\ht66f018_f12\f12-test-20220114\record_control.c"
  48  001E  35A5        	clr [37].3
  49  001F              #line 49 "e:\ht66f018_f12\f12-test-20220114\record_control.c"
  49  001F  0F05        	mov a,5
  49  0020  0080     R  	mov _use_delay_us_2[0],a
  49  0021  1F00     R  	clr _use_delay_us_2[1]
  49  0022  2000     R  	call _use_delay_us
  51  0023              #line 51 "e:\ht66f018_f12\f12-test-20220114\record_control.c"
  51  0023  340A        	clr c
  51  0024  1B80     R  	rrc _set_voice_2[0]
  51  0025  1780     R  	sdz _set_voice_2[1]
  51  0026  2800     R  	jmp _L9
  54  0027              #line 54 "e:\ht66f018_f12\f12-test-20220114\record_control.c"
  54  0027  31A5        	set [37].3
  55  0028              #line 55 "e:\ht66f018_f12\f12-test-20220114\record_control.c"
  55  0028  0F28        	mov a,40
  55  0029  0080     R  	mov _use_delay_us_2[0],a
  55  002A  1F00     R  	clr _use_delay_us_2[1]
  55  002B  2000     R  	call _use_delay_us
  55  002C  0003        	ret
  55  002D              _set_voice endp
  55  002D              #line 55 "e:\ht66f018_f12\f12-test-20220114\record_control.c"
  55  002D              #pragma debug scope 1 1
  55  002D              public _user_delay_time
  55  0000              @HCCINIT	.section 'data'
   5  0000              #line 5 "e:\ht66f018_f12\f12-test-20220114\record_control.c"
   5  0000              @HCCINIT .section 'data'
   5  0000              _user_delay_time label byte
   5  0000              #pragma debug variable 12 1 _user_delay_time "user_delay_time"
   5  0000              	db 0
   5  0000              @ROMDATA_BASE .section inpage 'code'
   5  0000              	db 0
   5  0001              @HCCINIT .section 'data'
文件：record_control.c 编译器版本 HGASM 0202 页次4

   5  0001              	db 0
   5  0001              @ROMDATA_BASE .section inpage 'code'
   5  0001              	db 0
   5  0002              @HCCINIT .section 'data'
   5  0002              public _user_delay_flag
   4  0002              #line 4 "e:\ht66f018_f12\f12-test-20220114\record_control.c"
   4  0002              @HCCINIT .section 'data'
   4  0002              _user_delay_flag label byte
   4  0002              #pragma debug variable 8 1 _user_delay_flag "user_delay_flag"
   4  0002              	db 0
   4  0001              @ROMDATA_BASE .section inpage 'code'
   4  0001              	db 0
   4  0003              @HCCINIT .section 'data'
   4  0003              #pragma debug struct_end
   4  0003              #pragma debug struct_end
   4  0003              #pragma debug union_end
   4  0003              #pragma debug union_end
   4  0003              #pragma debug variable 43 1 ___pb "__pb" 1
   4  0003              
   4  0003              ; 
   4  0003              ; Generated by holtek-gcc v3.19, Fri Jan 28 13:56:48 2022
   4  0003              ; Rebuild 718
   4  0003              ; end of file


        0 Errors, 0