文件：tm1628.c     编译器版本 HGASM 0202 页次1


   1  0000              ; Generated by holtek-gcc v3.19, Thu Jan 27 11:41:41 2022
   2  0000              ; 
   3  0000              ; Configuration:
   4  0000              ;       without long instruction
   5  0000              ;       Single ROM, Multi-RAM
   6  0000              ;       bits_per_rom_unit:16
   7  0000              ;       with mp1
   8  0000              ;       with tbhp, address(0x9)
   9  0000              ;          Use tabrd-const
  10  0000              ;       
  11  0000              ;       
  12  0000              ;       
  13  0000              ; use 'tabrdc' instead of 'tabrd'
  14  0000              ;       
  15  0000              
  16  0000              #pragma translator "holtek-gcc 4.6.4" "3.19" "build 20130711"
  17  0000              ; Rebuild 718
  18  0000              
  19  0000              ir equ [2]
  20  0000              mp equ [3]
  21  0000              sbp equ [1]
  22  0000              acc equ [5]
  23  0000              bp equ [4]
  24  0000              tblp equ [7]
  25  0000              tbhp equ [9]
  26  0000              status equ [10]
  27  0000              c equ [10].0
  28  0000              ac equ [10].1
  29  0000              z equ [10].2
  30  0000              ov equ [10].3
  31  0000              intc equ [11]
  32  0000              
  33  0000              extern ra:byte
  34  0000              extern rb:byte
  35  0000              extern rc:byte
  36  0000              extern rd:byte
  37  0000              extern re:byte
  38  0000              extern rf:byte
  39  0000              extern rg:byte
  40  0000              extern rh:byte
  41  0000              extern _Crom2Prom:near
  42  0000              extern _Crom2PromNext:near
  43  0000              
  44  0000              RAMBANK 0 @HCCINIT, @HCCINIT0
  45  0000              
  46  0000              RAMBANK 0 @BITDATASEC, @BITDATASEC1
  47  0000              @HCCINIT	.section 'data'
  48  0000              @HCCINIT0	.section 'data'
  49  0000              @BITDATASEC	 .section 'data'
  50  0000              @BITDATASEC1	 .section 'data'
  51  0000              
  52  0000              #pragma debug scope 1 1
  53  0000              	extern __DELAY3:near
  54  0000              	extern __DELAYX3:near
  55  0000              	extern __DELAYX6:near
  56  0000              	extern __DELAYY5:near
  57  0000              	extern __DELAYY3:near
  58  0000              	extern _builtin_holtek_delay_2:byte
  59  0000              ___pb equ [37]
文件：tm1628.ASM   编译器版本 HGASM 0202 页次2

  60  0000              public _send_8bit
  61  0000              #pragma debug scope 2 1

  32  0000              #line 32 "E:\HT66F018_F12\tm1628\tm1628.c"
  32  0000              _send_8bit .section 'code'
  32  0000              _send_8bit proc
  32  0000  00              local _send_8bit_2 db 1 dup(?)	; 0,1
  32  0000  0080     R  	mov _send_8bit_2[0],a
  32  0001              #pragma debug variable 8 2 _send_8bit_2+0 "dat"
  32  0001  0F08        	mov a,8
  32  0002  0080     E  	mov ra,a
  32  0003              _L5:
  36  0003              #line 36 "E:\HT66F018_F12\tm1628\tm1628.c"
  36  0003  36A5        	clr [37].5
  38  0004              #line 38 "E:\HT66F018_F12\tm1628\tm1628.c"
  38  0004  3800     R  	snz _send_8bit_2[0].0
  38  0005  2800     R  	jmp _L2
  39  0006              #line 39 "E:\HT66F018_F12\tm1628\tm1628.c"
  39  0006  3325        	set [37].6
  39  0007  2800     R  	jmp _L3
  39  0008              _L2:
  41  0008              #line 41 "E:\HT66F018_F12\tm1628\tm1628.c"
  41  0008  3725        	clr [37].6
  41  0009              _L3:
  43  0009              #line 43 "E:\HT66F018_F12\tm1628\tm1628.c"
  43  0009  340A        	clr c
  43  000A  1B80     R  	rrc _send_8bit_2[0]
  44  000B              #line 44 "E:\HT66F018_F12\tm1628\tm1628.c"
  44  000B  32A5        	set [37].5
  44  000C  1780     E  	sdz ra
  44  000D  2800     R  	jmp _L5
  44  000E  0003        	ret
  44  000F              _send_8bit endp
  44  000F              #line 44 "E:\HT66F018_F12\tm1628\tm1628.c"
  44  000F              #pragma debug scope 1 1
  44  000F              ___pa equ [20]
  44  000F              public _send_command
  44  000F              #pragma debug scope 3 1
  49  000F              #line 49 "E:\HT66F018_F12\tm1628\tm1628.c"
  49  0000              _send_command .section 'code'
  49  0000              _send_command proc
  49  0000  00              local _send_command_2 db 1 dup(?)	; 0,1
  49  0000  0080     R  	mov _send_command_2[0],a
  49  0001              #pragma debug variable 8 3 _send_command_2+0 "com"
  50  0001              #line 50 "E:\HT66F018_F12\tm1628\tm1628.c"
  50  0001  3594        	clr [20].3
  51  0002              #line 51 "E:\HT66F018_F12\tm1628\tm1628.c"
  51  0002  0700     R  	mov a,_send_command_2[0]
  51  0003  2000     R  	call _send_8bit
  52  0004              #line 52 "E:\HT66F018_F12\tm1628\tm1628.c"
  52  0004  3194        	set [20].3
  52  0005  0003        	ret
  52  0006              _send_command endp
  52  0006              #line 52 "E:\HT66F018_F12\tm1628\tm1628.c"
  52  0006              #pragma debug scope 1 1
  52  0006              public _Write_DATA
  52  0006              #pragma debug scope 4 1
  57  0006              #line 57 "E:\HT66F018_F12\tm1628\tm1628.c"
  57  0000              _Write_DATA .section 'code'
  57  0000              _Write_DATA proc
文件：tm1628.c     编译器版本 HGASM 0202 页次3

  57  0000              public _Write_DATA_2
  57  0000  0002[           local _Write_DATA_2 db 2 dup(?)	; 1,1
            00
            ]
  57  0000  0080     R  	mov _Write_DATA_2[1],a
  57  0001              #pragma debug variable 8 4 _Write_DATA_2+1 "add"
  57  0001              #pragma debug variable 8 4 _Write_DATA_2+0 "DATA"
  58  0001              #line 58 "E:\HT66F018_F12\tm1628\tm1628.c"
  58  0001  0F44        	mov a,68
  58  0002  2000     R  	call _send_command
  59  0003              #line 59 "E:\HT66F018_F12\tm1628\tm1628.c"
  59  0003  3594        	clr [20].3
  60  0004              #line 60 "E:\HT66F018_F12\tm1628\tm1628.c"
  60  0004  0700     R  	mov a,_Write_DATA_2[1]
  60  0005  2000     R  	call _send_8bit
  61  0006              #line 61 "E:\HT66F018_F12\tm1628\tm1628.c"
  61  0006  0700     R  	mov a,_Write_DATA_2[0]
  61  0007  2000     R  	call _send_8bit
  62  0008              #line 62 "E:\HT66F018_F12\tm1628\tm1628.c"
  62  0008  3194        	set [20].3
  62  0009  0003        	ret
  62  000A              _Write_DATA endp
  62  000A              #line 62 "E:\HT66F018_F12\tm1628\tm1628.c"
  62  000A              #pragma debug scope 1 1
  62  000A              public _init_TM1628
  62  000A              #pragma debug scope 5 1
  66  000A              #line 66 "E:\HT66F018_F12\tm1628\tm1628.c"
  66  0000              _init_TM1628 .section 'code'
  66  0000              _init_TM1628 proc
  66  0000  00              local _init_TM1628_2 db 1 dup(?)	; 0,1
  68  0001              #line 68 "E:\HT66F018_F12\tm1628\tm1628.c"
  68  0000  0F03        	mov a,3
  68  0001  2000     R  	call _send_command
  69  0002              #line 69 "E:\HT66F018_F12\tm1628\tm1628.c"
  69  0002  0F8F        	mov a,143
  69  0003  2000     R  	call _send_command
  70  0004              #line 70 "E:\HT66F018_F12\tm1628\tm1628.c"
  70  0004  0F40        	mov a,64
  70  0005  2000     R  	call _send_command
  72  0006              #line 72 "E:\HT66F018_F12\tm1628\tm1628.c"
  72  0006  3594        	clr [20].3
  73  0007              #line 73 "E:\HT66F018_F12\tm1628\tm1628.c"
  73  0007  0FC0        	mov a,192
  73  0008  2000     R  	call _send_8bit
  73  0009  0F10        	mov a,16
  73  000A  0080     R  	mov _init_TM1628_2[0],a
  73  000B              _L11:
  77  000B              #line 77 "E:\HT66F018_F12\tm1628\tm1628.c"
  77  000B  0F00        	mov a,0
  77  000C  2000     R  	call _send_8bit
  77  000D  1780     R  	sdz _init_TM1628_2[0]
  77  000E  2800     R  	jmp _L11
  79  000F              #line 79 "E:\HT66F018_F12\tm1628\tm1628.c"
  79  000F  3194        	set [20].3
  79  0010  0003        	ret
  79  0011              _init_TM1628 endp
  79  0011              #line 79 "E:\HT66F018_F12\tm1628\tm1628.c"
  79  0011              #pragma debug scope 1 1
  79  0011              public _Delay_ms
  79  0011              #pragma debug scope 6 1
文件：tm1628.c     编译器版本 HGASM 0202 页次4

  83  0011              #line 83 "E:\HT66F018_F12\tm1628\tm1628.c"
  83  0000              _Delay_ms .section 'code'
  83  0000              _Delay_ms proc
  83  0000              public _Delay_ms_2
  83  0000  0002[           local _Delay_ms_2 db 2 dup(?)	; 2,0
            00
            ]
  83  0002              #pragma debug variable 12 6 _Delay_ms_2+0 "ms"
  84  0002              #line 84 "E:\HT66F018_F12\tm1628\tm1628.c"
  84  0000  2800     R  	jmp _L13
  84  0001              _L14:
  86  0001              #line 86 "E:\HT66F018_F12\tm1628\tm1628.c"
  86  0001              ;# 86 "E:\HT66F018_F12\tm1628\tm1628.c" 1
  86  0001              	IF 2000>263690
  86  0001              ;# 86 "E:\HT66F018_F12\tm1628\tm1628.c" 1
  86  0001              	ERRMESSAGE 'the value 2000of the argument exceeds the maxinum 263690'
  86  0001              	ENDIF
  86  0001              ;# 86 "E:\HT66F018_F12\tm1628\tm1628.c" 1
  86  0001              	IF 2000<0
  86  0001              ;# 86 "E:\HT66F018_F12\tm1628\tm1628.c" 1
  86  0001              	ERRMESSAGE 'the value 2000 of the argument exceeds the mininum 0'
  86  0001              	ENDIF
  86  0001              ;# 86 "E:\HT66F018_F12\tm1628\tm1628.c" 1
  86  0001              	IF 2000==0
  86  0001              ;# 86 "E:\HT66F018_F12\tm1628\tm1628.c" 1
  86  0001              	JMP $
  86  0001              	ENDIF
  86  0001              ;# 86 "E:\HT66F018_F12\tm1628\tm1628.c" 1
  86  0001              	IF 2000==1
  86  0001              ;# 86 "E:\HT66F018_F12\tm1628\tm1628.c" 1
  86  0001              	NOP
  86  0001              	ENDIF
  86  0001              ;# 86 "E:\HT66F018_F12\tm1628\tm1628.c" 1
  86  0001              	IF 2000==2
  86  0001              ;# 86 "E:\HT66F018_F12\tm1628\tm1628.c" 1
  86  0001              	NOP
  86  0001              ;# 86 "E:\HT66F018_F12\tm1628\tm1628.c" 1
  86  0001              	NOP
  86  0001              	ENDIF
  86  0001              ;# 86 "E:\HT66F018_F12\tm1628\tm1628.c" 1
  86  0001              	IF 2000==3
  86  0001              ;# 86 "E:\HT66F018_F12\tm1628\tm1628.c" 1
  86  0001              	NOP
  86  0001              ;# 86 "E:\HT66F018_F12\tm1628\tm1628.c" 1
  86  0001              	NOP
  86  0001              ;# 86 "E:\HT66F018_F12\tm1628\tm1628.c" 1
  86  0001              	NOP
  86  0001              	ENDIF
  86  0001              ;# 86 "E:\HT66F018_F12\tm1628\tm1628.c" 1
  86  0001              	IF (2000<8) AND (2000>3)
  86  0001              ;# 86 "E:\HT66F018_F12\tm1628\tm1628.c" 1
  86  0001              	CALL __DELAY3 + 7 -2000
  86  0001              	ENDIF
  86  0001              ;# 86 "E:\HT66F018_F12\tm1628\tm1628.c" 1
  86  0001              	IF (2000< 0404h) AND (2000>7)
  86  0001              ;# 86 "E:\HT66F018_F12\tm1628\tm1628.c" 1
  86  0001              	MOV A,2000/4-1
  86  0001              ;# 86 "E:\HT66F018_F12\tm1628\tm1628.c" 1
  86  0001              	CALL __DELAYX3 + 3 -(2000 MOD 4)
  86  0001              	ENDIF
文件：tm1628.c     编译器版本 HGASM 0202 页次5

  86  0001              ;# 86 "E:\HT66F018_F12\tm1628\tm1628.c" 1
  86  0001              	IF (2000< 0x40B) AND (2000> 0403h)
  86  0001              ;# 86 "E:\HT66F018_F12\tm1628\tm1628.c" 1
  86  0001              	MOV A,0 
  86  0001              ;# 86 "E:\HT66F018_F12\tm1628\tm1628.c" 1
  86  0001              	CALL __DELAYX6 + 0x40a -2000
  86  0001              	ENDIF
  86  0001              ;# 86 "E:\HT66F018_F12\tm1628\tm1628.c" 1
  86  0001              	IF (2000 >= 0x40b) AND ((((2000-9)%0402h)/4+1)>256)
  86  0001              ;# 86 "E:\HT66F018_F12\tm1628\tm1628.c" 1
  86  0001              	MOV A,(2000-9)/0402h
  86  0001              ;# 86 "E:\HT66F018_F12\tm1628\tm1628.c" 1
  86  0001              	MOV _builtin_holtek_delay_2,A
  86  0001              ;# 86 "E:\HT66F018_F12\tm1628\tm1628.c" 1
  86  0001              	MOV A,0
  86  0001              ;# 86 "E:\HT66F018_F12\tm1628\tm1628.c" 1
  86  0001              	CALL __DELAYY5 +5- (((2000-9)%0402h)%6)
  86  0001              	ENDIF
  86  0001              ;# 86 "E:\HT66F018_F12\tm1628\tm1628.c" 1
  86  0001              	IF (2000 >= 0x40b) AND ((((2000-9)%0402h)/4+1)<=256)
  86  0001              ;# 86 "E:\HT66F018_F12\tm1628\tm1628.c" 1
  86  0001  0F01        	MOV A,(2000-9)/0402h
  86  0002              ;# 86 "E:\HT66F018_F12\tm1628\tm1628.c" 1
  86  0002  0080     E  	MOV _builtin_holtek_delay_2,A
  86  0003              ;# 86 "E:\HT66F018_F12\tm1628\tm1628.c" 1
  86  0003  0FF2        	MOV A,((2000-9)%0402h)/4+1
  86  0004              ;# 86 "E:\HT66F018_F12\tm1628\tm1628.c" 1
  86  0004  2000     E  	CALL __DELAYY3 +3-(((2000-9)%0402h)%4)
  86  0005              	ENDIF
  86  0005              _L13:
  84  0005              #line 84 "E:\HT66F018_F12\tm1628\tm1628.c"
  84  0005  0FFF        	mov a,255
  84  0006  0380     R  	addm a,_Delay_ms_2[0]
  84  0007  0FFF        	mov a,255
  84  0008  1380     R  	adcm a,_Delay_ms_2[1]
  84  0009  0700     R  	mov a,_Delay_ms_2[0]
  84  000A  0600     R  	and a,_Delay_ms_2[1]
  84  000B  0B01        	add a,1
  84  000C  380A        	snz c
  84  000D  2800     R  	jmp _L14
  84  000E  0003        	ret
  84  000F              _Delay_ms endp
  84  000F              #line 84 "E:\HT66F018_F12\tm1628\tm1628.c"
  84  000F              #pragma debug scope 1 1
  84  000F              ___pac equ [21]
  84  000F              ___papu equ [22]
  84  000F              public _GPIOA_INIT
  84  000F              #pragma debug scope 7 1
  93  000F              #line 93 "E:\HT66F018_F12\tm1628\tm1628.c"
  93  0000              _GPIOA_INIT .section 'code'
  93  0000              _GPIOA_INIT proc
  93  0000              public _GPIOA_INIT_2
  93  0000  0004[           local _GPIOA_INIT_2 db 4 dup(?)	; 3,1
            00
            ]
  93  0000  0080     R  	mov _GPIOA_INIT_2[3],a
  93  0001              #pragma debug variable 8 7 _GPIOA_INIT_2+3 "GPIO_Pin"
  93  0001              #pragma debug variable 8 7 _GPIOA_INIT_2+0 "GPIO_Mode"
  93  0001              #pragma debug variable 8 7 _GPIOA_INIT_2+1 "wakeup"
  93  0001              #pragma debug variable 8 7 _GPIOA_INIT_2+2 "GPIO_BitVal"
文件：tm1628.c     编译器版本 HGASM 0202 页次6

  94  0001              #line 94 "E:\HT66F018_F12\tm1628\tm1628.c"
  94  0001  1700     R  	sdza _GPIOA_INIT_2[0]
  94  0002  2800     R  	jmp _L16
  96  0003              #line 96 "E:\HT66F018_F12\tm1628\tm1628.c"
  96  0003  0700     R  	mov a,_GPIOA_INIT_2[3]
  96  0004  0595        	orm a,[21]
  97  0005              #line 97 "E:\HT66F018_F12\tm1628\tm1628.c"
  97  0005  0700     R  	mov a,_GPIOA_INIT_2[3]
  97  0006  0596        	orm a,[22]
  97  0007  2800     R  	jmp _L17
  97  0008              _L16:
 101  0008              #line 101 "E:\HT66F018_F12\tm1628\tm1628.c"
 101  0008  0100     R  	cpla _GPIOA_INIT_2[3]
 101  0009  0080     E  	mov ra,a
 101  000A  0700     E  	mov a,ra
 101  000B  0695        	andm a,[21]
 102  000C              #line 102 "E:\HT66F018_F12\tm1628\tm1628.c"
 102  000C  0700     E  	mov a,ra
 102  000D  0696        	andm a,[22]
 102  000E              _L17:
 105  000E              #line 105 "E:\HT66F018_F12\tm1628\tm1628.c"
 105  000E  1080     R  	sz _GPIOA_INIT_2[2]
 105  000F  2800     R  	jmp _LI1
 105  0010  2800     R  	jmp _L18
 105  0011              _LI1:
 107  0011              #line 107 "E:\HT66F018_F12\tm1628\tm1628.c"
 107  0011  0700     R  	mov a,_GPIOA_INIT_2[3]
 107  0012  0594        	orm a,[20]
 107  0013  2800     R  	jmp _L15
 107  0014              _L18:
 111  0014              #line 111 "E:\HT66F018_F12\tm1628\tm1628.c"
 111  0014  0100     R  	cpla _GPIOA_INIT_2[3]
 111  0015  0080     E  	mov ra,a
 111  0016  0700     E  	mov a,ra
 111  0017  0694        	andm a,[20]
 111  0018              _L15:
 111  0018  0003        	ret
 111  0019              _GPIOA_INIT endp
 111  0019              #line 111 "E:\HT66F018_F12\tm1628\tm1628.c"
 111  0019              #pragma debug scope 1 1
 111  0019              ___pbc equ [38]
 111  0019              ___pbpu equ [39]
 111  0019              public _GPIOB_INIT
 111  0019              #pragma debug scope 8 1
 118  0019              #line 118 "E:\HT66F018_F12\tm1628\tm1628.c"
 118  0000              _GPIOB_INIT .section 'code'
 118  0000              _GPIOB_INIT proc
 118  0000              public _GPIOB_INIT_2
 118  0000  0003[           local _GPIOB_INIT_2 db 3 dup(?)	; 2,1
            00
            ]
 118  0000  0080     R  	mov _GPIOB_INIT_2[2],a
 118  0001              #pragma debug variable 8 8 _GPIOB_INIT_2+2 "GPIO_Pin"
 118  0001              #pragma debug variable 8 8 _GPIOB_INIT_2+0 "GPIO_Mode"
 118  0001              #pragma debug variable 8 8 _GPIOB_INIT_2+1 "GPIO_BitVal"
 120  0001              #line 120 "E:\HT66F018_F12\tm1628\tm1628.c"
 120  0001  1700     R  	sdza _GPIOB_INIT_2[0]
 120  0002  2800     R  	jmp _L21
 122  0003              #line 122 "E:\HT66F018_F12\tm1628\tm1628.c"
 122  0003  0700     R  	mov a,_GPIOB_INIT_2[2]
文件：tm1628.c     编译器版本 HGASM 0202 页次7

 122  0004  05A6        	orm a,[38]
 123  0005              #line 123 "E:\HT66F018_F12\tm1628\tm1628.c"
 123  0005  0700     R  	mov a,_GPIOB_INIT_2[2]
 123  0006  05A7        	orm a,[39]
 123  0007  2800     R  	jmp _L22
 123  0008              _L21:
 127  0008              #line 127 "E:\HT66F018_F12\tm1628\tm1628.c"
 127  0008  0100     R  	cpla _GPIOB_INIT_2[2]
 127  0009  0080     E  	mov ra,a
 127  000A  0700     E  	mov a,ra
 127  000B  06A6        	andm a,[38]
 128  000C              #line 128 "E:\HT66F018_F12\tm1628\tm1628.c"
 128  000C  0700     E  	mov a,ra
 128  000D  06A7        	andm a,[39]
 128  000E              _L22:
 131  000E              #line 131 "E:\HT66F018_F12\tm1628\tm1628.c"
 131  000E  1080     R  	sz _GPIOB_INIT_2[1]
 131  000F  2800     R  	jmp _LI2
 131  0010  2800     R  	jmp _L23
 131  0011              _LI2:
 133  0011              #line 133 "E:\HT66F018_F12\tm1628\tm1628.c"
 133  0011  0700     R  	mov a,_GPIOB_INIT_2[2]
 133  0012  05A5        	orm a,[37]
 133  0013  2800     R  	jmp _L20
 133  0014              _L23:
 137  0014              #line 137 "E:\HT66F018_F12\tm1628\tm1628.c"
 137  0014  0100     R  	cpla _GPIOB_INIT_2[2]
 137  0015  0080     E  	mov ra,a
 137  0016  0700     E  	mov a,ra
 137  0017  06A5        	andm a,[37]
 137  0018              _L20:
 137  0018  0003        	ret
 137  0019              _GPIOB_INIT endp
 137  0019              #line 137 "E:\HT66F018_F12\tm1628\tm1628.c"
 137  0019              #pragma debug scope 1 1
 137  0019              ___pcc equ [65]
 137  0019              ___pcpu equ [66]
 137  0019              ___pc equ [64]
 137  0019              public _GPIOC_INIT
 137  0019              #pragma debug scope 9 1
 143  0019              #line 143 "E:\HT66F018_F12\tm1628\tm1628.c"
 143  0000              _GPIOC_INIT .section 'code'
 143  0000              _GPIOC_INIT proc
 143  0000              public _GPIOC_INIT_2
 143  0000  0003[           local _GPIOC_INIT_2 db 3 dup(?)	; 2,1
            00
            ]
 143  0000  0080     R  	mov _GPIOC_INIT_2[2],a
 143  0001              #pragma debug variable 8 9 _GPIOC_INIT_2+2 "GPIO_Pin"
 143  0001              #pragma debug variable 8 9 _GPIOC_INIT_2+0 "GPIO_Mode"
 143  0001              #pragma debug variable 8 9 _GPIOC_INIT_2+1 "GPIO_BitVal"
 145  0001              #line 145 "E:\HT66F018_F12\tm1628\tm1628.c"
 145  0001  1700     R  	sdza _GPIOC_INIT_2[0]
 145  0002  2800     R  	jmp _L26
 147  0003              #line 147 "E:\HT66F018_F12\tm1628\tm1628.c"
 147  0003  0700     R  	mov a,_GPIOC_INIT_2[2]
 147  0004  05C1        	orm a,[65]
 148  0005              #line 148 "E:\HT66F018_F12\tm1628\tm1628.c"
 148  0005  0700     R  	mov a,_GPIOC_INIT_2[2]
 148  0006  05C2        	orm a,[66]
文件：tm1628.c     编译器版本 HGASM 0202 页次8

 148  0007  2800     R  	jmp _L27
 148  0008              _L26:
 152  0008              #line 152 "E:\HT66F018_F12\tm1628\tm1628.c"
 152  0008  0100     R  	cpla _GPIOC_INIT_2[2]
 152  0009  0080     E  	mov ra,a
 152  000A  0700     E  	mov a,ra
 152  000B  06C1        	andm a,[65]
 153  000C              #line 153 "E:\HT66F018_F12\tm1628\tm1628.c"
 153  000C  0700     E  	mov a,ra
 153  000D  06C2        	andm a,[66]
 153  000E              _L27:
 156  000E              #line 156 "E:\HT66F018_F12\tm1628\tm1628.c"
 156  000E  1080     R  	sz _GPIOC_INIT_2[1]
 156  000F  2800     R  	jmp _LI3
 156  0010  2800     R  	jmp _L28
 156  0011              _LI3:
 158  0011              #line 158 "E:\HT66F018_F12\tm1628\tm1628.c"
 158  0011  0700     R  	mov a,_GPIOC_INIT_2[2]
 158  0012  05C0        	orm a,[64]
 158  0013  2800     R  	jmp _L25
 158  0014              _L28:
 162  0014              #line 162 "E:\HT66F018_F12\tm1628\tm1628.c"
 162  0014  0100     R  	cpla _GPIOC_INIT_2[2]
 162  0015  0080     E  	mov ra,a
 162  0016  0700     E  	mov a,ra
 162  0017  06C0        	andm a,[64]
 162  0018              _L25:
 162  0018  0003        	ret
 162  0019              _GPIOC_INIT endp
 162  0019              #line 162 "E:\HT66F018_F12\tm1628\tm1628.c"
 162  0019              #pragma debug scope 1 1
 162  0019              ___bp equ [4]
 162  0019              ___mp1 equ [3]
 162  0019              ___iar1 equ [2]
 162  0019              public _clr_ram_en
 162  0019              #pragma debug scope 10 1
 169  0019              #line 169 "E:\HT66F018_F12\tm1628\tm1628.c"
 169  0000              _clr_ram_en .section 'code'
 169  0000              _clr_ram_en proc
 169  0000  00              local _clr_ram_en_2 db 1 dup(?)	; 0,1
 169  0000  0080     E  	mov ra,a
 169  0001  0080     R  	mov _clr_ram_en_2[0],a
 169  0002              #pragma debug variable 8 10 _clr_ram_en_2+0 "t"
 170  0002              #line 170 "E:\HT66F018_F12\tm1628\tm1628.c"
 170  0002  0F01        	mov a,1
 170  0003  0680     E  	andm a,ra
 170  0004  3404        	clr [4].0
 170  0005  0700     E  	mov a,ra
 170  0006  0584        	orm a,[4]
 171  0007              #line 171 "E:\HT66F018_F12\tm1628\tm1628.c"
 171  0007  0F80        	mov a,128
 171  0008  0083        	mov [3],a
 172  0009              #line 172 "E:\HT66F018_F12\tm1628\tm1628.c"
 172  0009  2800     R  	jmp _L31
 172  000A              _L32:
 174  000A              #line 174 "E:\HT66F018_F12\tm1628\tm1628.c"
 174  000A  1F02        	clr [2]
 175  000B              #line 175 "E:\HT66F018_F12\tm1628\tm1628.c"
 175  000B  1483        	inc [3]
 175  000C              _L31:
文件：tm1628.c     编译器版本 HGASM 0202 页次9

 172  000C              #line 172 "E:\HT66F018_F12\tm1628\tm1628.c"
 172  000C  1083        	sz [3]
 172  000D  2800     R  	jmp _L32
 172  000E  0003        	ret
 172  000F              _clr_ram_en endp
 172  000F              #line 172 "E:\HT66F018_F12\tm1628\tm1628.c"
 172  000F              #pragma debug scope 1 1
 172  000F              ___smod equ [11]
 172  000F              ___wdtc equ [26]
 172  000F              ___acerl equ [36]
 172  000F              ___tmpc equ [25]
 172  000F              ___cpc equ [62]
 172  000F              ___integ equ [13]
 172  000F              ___intc0 equ [14]
 172  000F              ___tm0c0 equ [47]
 172  000F              ___tm0c1 equ [48]
 172  000F              ___tm0al equ [51]
 172  000F              ___tm0ah equ [52]
 172  000F              ___mfi0 equ [17]
 172  000F              ___tbc equ [27]
 172  000F              ___intc1 equ [15]
 172  000F              public _Init_clock
 172  000F              #pragma debug scope 11 1
 180  000F              #line 180 "E:\HT66F018_F12\tm1628\tm1628.c"
 180  0000              _Init_clock .section 'code'
 180  0000              _Init_clock proc
 181  0000              #line 181 "E:\HT66F018_F12\tm1628\tm1628.c"
 181  0000  0F01        	mov a,1
 181  0001  008B        	mov [11],a
 181  0002              _L35:
 182  0002              #line 182 "E:\HT66F018_F12\tm1628\tm1628.c"
 182  0002  390B        	snz [11].2
 182  0003  2800     R  	jmp _L35
 183  0004              #line 183 "E:\HT66F018_F12\tm1628\tm1628.c"
 183  0004  0F57        	mov a,87
 183  0005  009A        	mov [26],a
 184  0006              #line 184 "E:\HT66F018_F12\tm1628\tm1628.c"
 184  0006  1F24        	clr [36]
 185  0007              #line 185 "E:\HT66F018_F12\tm1628\tm1628.c"
 185  0007  1F19        	clr [25]
 186  0008              #line 186 "E:\HT66F018_F12\tm1628\tm1628.c"
 186  0008  0F08        	mov a,8
 186  0009  00BE        	mov [62],a
 187  000A              #line 187 "E:\HT66F018_F12\tm1628\tm1628.c"
 187  000A  1F0D        	clr [13]
 188  000B              #line 188 "E:\HT66F018_F12\tm1628\tm1628.c"
 188  000B  348E        	clr [14].1
 189  000C              #line 189 "E:\HT66F018_F12\tm1628\tm1628.c"
 189  000C  340E        	clr [14].0
 192  000D              #line 192 "E:\HT66F018_F12\tm1628\tm1628.c"
 192  000D  0F10        	mov a,16
 192  000E  00AF        	mov [47],a
 193  000F              #line 193 "E:\HT66F018_F12\tm1628\tm1628.c"
 193  000F  0FC1        	mov a,193
 193  0010  00B0        	mov [48],a
 194  0011              #line 194 "E:\HT66F018_F12\tm1628\tm1628.c"
 194  0011  0FF8        	mov a,248
 194  0012  00B3        	mov [51],a
 195  0013              #line 195 "E:\HT66F018_F12\tm1628\tm1628.c"
 195  0013  0F05        	mov a,5
文件：tm1628.c     编译器版本 HGASM 0202 页次10

 195  0014  00B4        	mov [52],a
 196  0015              #line 196 "E:\HT66F018_F12\tm1628\tm1628.c"
 196  0015  3691        	clr [17].5
 197  0016              #line 197 "E:\HT66F018_F12\tm1628\tm1628.c"
 197  0016  31AF        	set [47].3
 198  0017              #line 198 "E:\HT66F018_F12\tm1628\tm1628.c"
 198  0017  318E        	set [14].3
 199  0018              #line 199 "E:\HT66F018_F12\tm1628\tm1628.c"
 199  0018  3091        	set [17].1
 201  0019              #line 201 "E:\HT66F018_F12\tm1628\tm1628.c"
 201  0019  0F10        	mov a,16
 201  001A  00AF        	mov [47],a
 202  001B              #line 202 "E:\HT66F018_F12\tm1628\tm1628.c"
 202  001B  0FC1        	mov a,193
 202  001C  00B0        	mov [48],a
 203  001D              #line 203 "E:\HT66F018_F12\tm1628\tm1628.c"
 203  001D  0FF8        	mov a,248
 203  001E  00B3        	mov [51],a
 204  001F              #line 204 "E:\HT66F018_F12\tm1628\tm1628.c"
 204  001F  0F05        	mov a,5
 204  0020  00B4        	mov [52],a
 205  0021              #line 205 "E:\HT66F018_F12\tm1628\tm1628.c"
 205  0021  3691        	clr [17].5
 206  0022              #line 206 "E:\HT66F018_F12\tm1628\tm1628.c"
 206  0022  31AF        	set [47].3
 207  0023              #line 207 "E:\HT66F018_F12\tm1628\tm1628.c"
 207  0023  318E        	set [14].3
 208  0024              #line 208 "E:\HT66F018_F12\tm1628\tm1628.c"
 208  0024  3091        	set [17].1
 211  0025              #line 211 "E:\HT66F018_F12\tm1628\tm1628.c"
 211  0025  0F87        	mov a,135
 211  0026  009B        	mov [27],a
 212  0027              #line 212 "E:\HT66F018_F12\tm1628\tm1628.c"
 212  0027  378F        	clr [15].7
 213  0028              #line 213 "E:\HT66F018_F12\tm1628\tm1628.c"
 213  0028  318F        	set [15].3
 215  0029              #line 215 "E:\HT66F018_F12\tm1628\tm1628.c"
 215  0029  300E        	set [14].0
 217  002A              #line 217 "E:\HT66F018_F12\tm1628\tm1628.c"
 217  002A              ;# 217 "E:\HT66F018_F12\tm1628\tm1628.c" 1
 217  002A  0001        	clr wdt
 218  002B              #line 218 "E:\HT66F018_F12\tm1628\tm1628.c"
 218  002B  0F00        	mov a,0
 218  002C  2000     R  	call _clr_ram_en
 219  002D              #line 219 "E:\HT66F018_F12\tm1628\tm1628.c"
 219  002D  0F01        	mov a,1
 219  002E  2000     R  	call _clr_ram_en
 219  002F  0003        	ret
 219  0030              _Init_clock endp
 219  0030              #line 219 "E:\HT66F018_F12\tm1628\tm1628.c"
 219  0030              #pragma debug scope 1 1
 219  0030              public _isr_TM0
 219  0030              #pragma debug scope 12 1
 225  0030              #line 225 "E:\HT66F018_F12\tm1628\tm1628.c"
 225  0000              @isr_TM0_code .section at 12 'code'
 225  0000  0080     E  	mov r1,a
 225  0001  070A        	mov a,status
 225  0002  0080     E  	mov r2,a
 225  0003  2800     R  	jmp _isr_TM0
 225  0004              #pragma debug scope 1 1
文件：tm1628.c     编译器版本 HGASM 0202 页次11

 225  0004              @dummy12 endp
 225  0004              #pragma debug scope 13 1
 225  0000              _isr_TM0 .section 'code'
 225  0000              _isr_TM0 proc
 226  0000              #line 226 "E:\HT66F018_F12\tm1628\tm1628.c"
 226  0000  3691        	clr [17].5
 230  0001              #line 230 "E:\HT66F018_F12\tm1628\tm1628.c"
 230  0001  300E        	set [14].0
 230  0002  0700     E  	mov a,r2
 230  0003  008A        	mov status,a
 230  0004  0700     E  	mov a,r1
 230  0005  0004        	reti
 230  0006              _isr_TM0 endp
 230  0006              
 230  0006              #line 230 "E:\HT66F018_F12\tm1628\tm1628.c"
 230  0006              #pragma debug scope 1 1
 230  0006              public _isr_TB0
 230  0006              #pragma debug scope 14 1
 234  0006              #line 234 "E:\HT66F018_F12\tm1628\tm1628.c"
 234  0000              @isr_TB0_code .section at 28 'code'
 234  0000  0080     E  	mov r1,a
 234  0001  070A        	mov a,status
 234  0002  0080     E  	mov r2,a
 234  0003  2800     R  	jmp _isr_TB0
 234  0004              #pragma debug scope 1 1
 234  0004              @dummy28 endp
 234  0004              #pragma debug scope 15 1
 234  0000              _isr_TB0 .section 'code'
 234  0000              _isr_TB0 proc
 235  0000              #line 235 "E:\HT66F018_F12\tm1628\tm1628.c"
 235  0000  378F        	clr [15].7
 237  0001              #line 237 "E:\HT66F018_F12\tm1628\tm1628.c"
 237  0001  1480     R  	inc _rtc_date[2]
 238  0002              #line 238 "E:\HT66F018_F12\tm1628\tm1628.c"
 238  0002  0F3B        	mov a,59
 238  0003  0200     R  	sub a,_rtc_date[2]
 238  0004  3C0A        	sz c
 238  0005  2800     R  	jmp _L39
 240  0006              #line 240 "E:\HT66F018_F12\tm1628\tm1628.c"
 240  0006  1480     R  	inc _rtc_date[1]
 241  0007              #line 241 "E:\HT66F018_F12\tm1628\tm1628.c"
 241  0007  1F00     R  	clr _rtc_date[2]
 245  0008              #line 245 "E:\HT66F018_F12\tm1628\tm1628.c"
 245  0008  0F3B        	mov a,59
 245  0009  0200     R  	sub a,_rtc_date[1]
 245  000A  3C0A        	sz c
 245  000B  2800     R  	jmp _L39
 247  000C              #line 247 "E:\HT66F018_F12\tm1628\tm1628.c"
 247  000C  1480     R  	inc _rtc_date[0]
 248  000D              #line 248 "E:\HT66F018_F12\tm1628\tm1628.c"
 248  000D  1F00     R  	clr _rtc_date[1]
 249  000E              #line 249 "E:\HT66F018_F12\tm1628\tm1628.c"
 249  000E  0F17        	mov a,23
 249  000F  0200     R  	sub a,_rtc_date[0]
 249  0010  3C0A        	sz c
 249  0011  2800     R  	jmp _L39
 251  0012              #line 251 "E:\HT66F018_F12\tm1628\tm1628.c"
 251  0012  1F00     R  	clr _rtc_date[0]
 251  0013              _L39:
 258  0013              #line 258 "E:\HT66F018_F12\tm1628\tm1628.c"
文件：tm1628.c     编译器版本 HGASM 0202 页次12

 258  0013  300E        	set [14].0
 258  0014  0700     E  	mov a,r2
 258  0015  008A        	mov status,a
 258  0016  0700     E  	mov a,r1
 258  0017  0004        	reti
 258  0018              _isr_TB0 endp
 258  0018              
 258  0018              #line 258 "E:\HT66F018_F12\tm1628\tm1628.c"
 258  0018              #pragma debug scope 1 1
 258  0018              public _main
 258  0018              #pragma debug scope 16 1
 262  0018              #line 262 "E:\HT66F018_F12\tm1628\tm1628.c"
 262  0018              IFDEF WITH_DEFAULT_STARTUP
 262  0018              extern _main_initial0:near
 262  0018              extern _main_startup:near
 262  0018              ENDIF
 262  0018              
 262  0018              ROMBANK 0 @start
 262  0000              @start .section com_l 'code'
 262  0000              _main_startup1:
 262  0000              @start .section com_e 'code'
 262  0000  2800     R  	jmp _main
 262  0001              
 262  0000              _main .section 'code'
 262  0000              _main proc
 263  0000              #line 263 "E:\HT66F018_F12\tm1628\tm1628.c"
 263  0000              ;# 263 "E:\HT66F018_F12\tm1628\tm1628.c" 1
 263  0000              	IF 100>263690
 263  0000              ;# 263 "E:\HT66F018_F12\tm1628\tm1628.c" 1
 263  0000              	ERRMESSAGE 'the value 100of the argument exceeds the maxinum 263690'
 263  0000              	ENDIF
 263  0000              ;# 263 "E:\HT66F018_F12\tm1628\tm1628.c" 1
 263  0000              	IF 100<0
 263  0000              ;# 263 "E:\HT66F018_F12\tm1628\tm1628.c" 1
 263  0000              	ERRMESSAGE 'the value 100 of the argument exceeds the mininum 0'
 263  0000              	ENDIF
 263  0000              ;# 263 "E:\HT66F018_F12\tm1628\tm1628.c" 1
 263  0000              	IF 100==0
 263  0000              ;# 263 "E:\HT66F018_F12\tm1628\tm1628.c" 1
 263  0000              	JMP $
 263  0000              	ENDIF
 263  0000              ;# 263 "E:\HT66F018_F12\tm1628\tm1628.c" 1
 263  0000              	IF 100==1
 263  0000              ;# 263 "E:\HT66F018_F12\tm1628\tm1628.c" 1
 263  0000              	NOP
 263  0000              	ENDIF
 263  0000              ;# 263 "E:\HT66F018_F12\tm1628\tm1628.c" 1
 263  0000              	IF 100==2
 263  0000              ;# 263 "E:\HT66F018_F12\tm1628\tm1628.c" 1
 263  0000              	NOP
 263  0000              ;# 263 "E:\HT66F018_F12\tm1628\tm1628.c" 1
 263  0000              	NOP
 263  0000              	ENDIF
 263  0000              ;# 263 "E:\HT66F018_F12\tm1628\tm1628.c" 1
 263  0000              	IF 100==3
 263  0000              ;# 263 "E:\HT66F018_F12\tm1628\tm1628.c" 1
 263  0000              	NOP
 263  0000              ;# 263 "E:\HT66F018_F12\tm1628\tm1628.c" 1
 263  0000              	NOP
 263  0000              ;# 263 "E:\HT66F018_F12\tm1628\tm1628.c" 1
文件：tm1628.c     编译器版本 HGASM 0202 页次13

 263  0000              	NOP
 263  0000              	ENDIF
 263  0000              ;# 263 "E:\HT66F018_F12\tm1628\tm1628.c" 1
 263  0000              	IF (100<8) AND (100>3)
 263  0000              ;# 263 "E:\HT66F018_F12\tm1628\tm1628.c" 1
 263  0000              	CALL __DELAY3 + 7 -100
 263  0000              	ENDIF
 263  0000              ;# 263 "E:\HT66F018_F12\tm1628\tm1628.c" 1
 263  0000              	IF (100< 0404h) AND (100>7)
 263  0000              ;# 263 "E:\HT66F018_F12\tm1628\tm1628.c" 1
 263  0000  0F18        	MOV A,100/4-1
 263  0001              ;# 263 "E:\HT66F018_F12\tm1628\tm1628.c" 1
 263  0001  2000     E  	CALL __DELAYX3 + 3 -(100 MOD 4)
 263  0002              	ENDIF
 263  0002              ;# 263 "E:\HT66F018_F12\tm1628\tm1628.c" 1
 263  0002              	IF (100< 0x40B) AND (100> 0403h)
 263  0002              ;# 263 "E:\HT66F018_F12\tm1628\tm1628.c" 1
 263  0002              	MOV A,0 
 263  0002              ;# 263 "E:\HT66F018_F12\tm1628\tm1628.c" 1
 263  0002              	CALL __DELAYX6 + 0x40a -100
 263  0002              	ENDIF
 263  0002              ;# 263 "E:\HT66F018_F12\tm1628\tm1628.c" 1
 263  0002              	IF (100 >= 0x40b) AND ((((100-9)%0402h)/4+1)>256)
 263  0002              ;# 263 "E:\HT66F018_F12\tm1628\tm1628.c" 1
 263  0002              	MOV A,(100-9)/0402h
 263  0002              ;# 263 "E:\HT66F018_F12\tm1628\tm1628.c" 1
 263  0002              	MOV _builtin_holtek_delay_2,A
 263  0002              ;# 263 "E:\HT66F018_F12\tm1628\tm1628.c" 1
 263  0002              	MOV A,0
 263  0002              ;# 263 "E:\HT66F018_F12\tm1628\tm1628.c" 1
 263  0002              	CALL __DELAYY5 +5- (((100-9)%0402h)%6)
 263  0002              	ENDIF
 263  0002              ;# 263 "E:\HT66F018_F12\tm1628\tm1628.c" 1
 263  0002              	IF (100 >= 0x40b) AND ((((100-9)%0402h)/4+1)<=256)
 263  0002              ;# 263 "E:\HT66F018_F12\tm1628\tm1628.c" 1
 263  0002              	MOV A,(100-9)/0402h
 263  0002              ;# 263 "E:\HT66F018_F12\tm1628\tm1628.c" 1
 263  0002              	MOV _builtin_holtek_delay_2,A
 263  0002              ;# 263 "E:\HT66F018_F12\tm1628\tm1628.c" 1
 263  0002              	MOV A,((100-9)%0402h)/4+1
 263  0002              ;# 263 "E:\HT66F018_F12\tm1628\tm1628.c" 1
 263  0002              	CALL __DELAYY3 +3-(((100-9)%0402h)%4)
 263  0002              	ENDIF
 264  0002              #line 264 "E:\HT66F018_F12\tm1628\tm1628.c"
 264  0002  2000     R  	call _Init_clock
 266  0003              #line 266 "E:\HT66F018_F12\tm1628\tm1628.c"
 266  0003  1F00     R  	clr _GPIOA_INIT_2[2]
 266  0004  1F00     R  	clr _GPIOA_INIT_2[1]
 266  0005  1F00     R  	clr _GPIOA_INIT_2[0]
 266  0006  0FFF        	mov a,255
 266  0007  2000     R  	call _GPIOA_INIT
 267  0008              #line 267 "E:\HT66F018_F12\tm1628\tm1628.c"
 267  0008  1F00     R  	clr _GPIOB_INIT_2[1]
 267  0009  1F00     R  	clr _GPIOB_INIT_2[0]
 267  000A  0FFF        	mov a,255
 267  000B  2000     R  	call _GPIOB_INIT
 268  000C              #line 268 "E:\HT66F018_F12\tm1628\tm1628.c"
 268  000C  1F00     R  	clr _GPIOC_INIT_2[1]
 268  000D  1F00     R  	clr _GPIOC_INIT_2[0]
 268  000E  0FFF        	mov a,255
文件：tm1628.c     编译器版本 HGASM 0202 页次14

 268  000F  2000     R  	call _GPIOC_INIT
 270  0010              #line 270 "E:\HT66F018_F12\tm1628\tm1628.c"
 270  0010  2000     R  	call _init_TM1628
 272  0011              #line 272 "E:\HT66F018_F12\tm1628\tm1628.c"
 272  0011  0F14        	mov a,20
 272  0012  0080     R  	mov _rtc_date[0],a
 273  0013              #line 273 "E:\HT66F018_F12\tm1628\tm1628.c"
 273  0013  0F0A        	mov a,10
 273  0014  0080     R  	mov _rtc_date[1],a
 274  0015              #line 274 "E:\HT66F018_F12\tm1628\tm1628.c"
 274  0015  1F00     R  	clr _rtc_date[2]
 276  0016              #line 276 "E:\HT66F018_F12\tm1628\tm1628.c"
 276  0016  300E        	set [14].0
 276  0017              _L44:
 281  0017              #line 281 "E:\HT66F018_F12\tm1628\tm1628.c"
 281  0017  1F00     E  	clr _builtin_holtek_udivmodqi4_2[3]
 281  0018  0700     R  	mov a,_rtc_date[0]
 281  0019  0080     E  	mov _builtin_holtek_udivmodqi4_2[0],a
 281  001A  0F0A        	mov a,10
 281  001B  0080     E  	mov _builtin_holtek_udivmodqi4_2[1],a
 281  001C  2000     E  	call _builtin_holtek_udivmodqi4
 281  001D  0700     E  	mov a,_builtin_holtek_udivmodqi4_2[0]
 281  001E  0080     E  	mov ra,a
 281  001F  0F00     R  	mov a,low offset _Num_tab_7
 281  0020  0300     E  	add a,ra
 281  0021  0083        	mov mp,a
 281  0022  0F00     R  	mov a,high offset _Num_tab_7
 281  0023  1F01        	clr sbp
 281  0024  1381        	adcm a,sbp
 281  0025  2000     E  	call _Crom2Prom
 281  0026  0080     R  	mov _Write_DATA_2[0],a
 281  0027  0FC0        	mov a,192
 281  0028  2000     R  	call _Write_DATA
 283  0029              #line 283 "E:\HT66F018_F12\tm1628\tm1628.c"
 283  0029  3C00     R  	sz _rtc_date[2].0
 283  002A  2800     R  	jmp _L42
 285  002B              #line 285 "E:\HT66F018_F12\tm1628\tm1628.c"
 285  002B  1F00     E  	clr _builtin_holtek_udivmodqi4_2[3]
 285  002C  0700     R  	mov a,_rtc_date[0]
 285  002D  0080     E  	mov _builtin_holtek_udivmodqi4_2[0],a
 285  002E  0F0A        	mov a,10
 285  002F  0080     E  	mov _builtin_holtek_udivmodqi4_2[1],a
 285  0030  2000     E  	call _builtin_holtek_udivmodqi4
 285  0031  0700     E  	mov a,_builtin_holtek_udivmodqi4_2[2]
 285  0032  0080     E  	mov ra,a
 285  0033  0F00     R  	mov a,low offset _Num_tab_7
 285  0034  0300     E  	add a,ra
 285  0035  0083        	mov mp,a
 285  0036  0F00     R  	mov a,high offset _Num_tab_7
 285  0037  1F01        	clr sbp
 285  0038  1381        	adcm a,sbp
 285  0039  2800     R  	jmp _L45
 285  003A              _L42:
 289  003A              #line 289 "E:\HT66F018_F12\tm1628\tm1628.c"
 289  003A  1F00     E  	clr _builtin_holtek_udivmodqi4_2[3]
 289  003B  0700     R  	mov a,_rtc_date[0]
 289  003C  0080     E  	mov _builtin_holtek_udivmodqi4_2[0],a
 289  003D  0F0A        	mov a,10
 289  003E  0080     E  	mov _builtin_holtek_udivmodqi4_2[1],a
 289  003F  2000     E  	call _builtin_holtek_udivmodqi4
文件：tm1628.c     编译器版本 HGASM 0202 页次15

 289  0040  0700     E  	mov a,_builtin_holtek_udivmodqi4_2[2]
 289  0041  0080     E  	mov ra,a
 289  0042  0F00     R  	mov a,low offset _Num_tab_8
 289  0043  0300     E  	add a,ra
 289  0044  0083        	mov mp,a
 289  0045  0F00     R  	mov a,high offset _Num_tab_8
 289  0046  1F01        	clr sbp
 289  0047  1381        	adcm a,sbp
 289  0048              _L45:
 289  0048  2000     E  	call _Crom2Prom
 289  0049  0080     R  	mov _Write_DATA_2[0],a
 289  004A  0FC2        	mov a,194
 289  004B  2000     R  	call _Write_DATA
 294  004C              #line 294 "E:\HT66F018_F12\tm1628\tm1628.c"
 294  004C  1F00     E  	clr _builtin_holtek_udivmodqi4_2[3]
 294  004D  0700     R  	mov a,_rtc_date[1]
 294  004E  0080     E  	mov _builtin_holtek_udivmodqi4_2[0],a
 294  004F  0F0A        	mov a,10
 294  0050  0080     E  	mov _builtin_holtek_udivmodqi4_2[1],a
 294  0051  2000     E  	call _builtin_holtek_udivmodqi4
 294  0052  0700     E  	mov a,_builtin_holtek_udivmodqi4_2[0]
 294  0053  0080     E  	mov ra,a
 294  0054  0F00     R  	mov a,low offset _Num_tab_7
 294  0055  0300     E  	add a,ra
 294  0056  0083        	mov mp,a
 294  0057  0F00     R  	mov a,high offset _Num_tab_7
 294  0058  1F01        	clr sbp
 294  0059  1381        	adcm a,sbp
 294  005A  2000     E  	call _Crom2Prom
 294  005B  0080     R  	mov _Write_DATA_2[0],a
 294  005C  0FC4        	mov a,196
 294  005D  2000     R  	call _Write_DATA
 295  005E              #line 295 "E:\HT66F018_F12\tm1628\tm1628.c"
 295  005E  1F00     E  	clr _builtin_holtek_udivmodqi4_2[3]
 295  005F  0700     R  	mov a,_rtc_date[1]
 295  0060  0080     E  	mov _builtin_holtek_udivmodqi4_2[0],a
 295  0061  0F0A        	mov a,10
 295  0062  0080     E  	mov _builtin_holtek_udivmodqi4_2[1],a
 295  0063  2000     E  	call _builtin_holtek_udivmodqi4
 295  0064  0700     E  	mov a,_builtin_holtek_udivmodqi4_2[2]
 295  0065  0080     E  	mov ra,a
 295  0066  0F00     R  	mov a,low offset _Num_tab_7
 295  0067  0300     E  	add a,ra
 295  0068  0083        	mov mp,a
 295  0069  0F00     R  	mov a,high offset _Num_tab_7
 295  006A  1F01        	clr sbp
 295  006B  1381        	adcm a,sbp
 295  006C  2000     E  	call _Crom2Prom
 295  006D  0080     R  	mov _Write_DATA_2[0],a
 295  006E  0FC6        	mov a,198
 295  006F  2000     R  	call _Write_DATA
 296  0070              #line 296 "E:\HT66F018_F12\tm1628\tm1628.c"
 296  0070  1F00     R  	clr _Write_DATA_2[0]
 296  0071  0FC8        	mov a,200
 296  0072  2000     R  	call _Write_DATA
 297  0073              #line 297 "E:\HT66F018_F12\tm1628\tm1628.c"
 297  0073  1F00     R  	clr _Write_DATA_2[0]
 297  0074  0FCA        	mov a,202
 297  0075  2000     R  	call _Write_DATA
 298  0076              #line 298 "E:\HT66F018_F12\tm1628\tm1628.c"
文件：tm1628.c     编译器版本 HGASM 0202 页次16

 298  0076  1F00     R  	clr _Write_DATA_2[0]
 298  0077  0FCC        	mov a,204
 298  0078  2000     R  	call _Write_DATA
 301  0079              #line 301 "E:\HT66F018_F12\tm1628\tm1628.c"
 301  0079              ;# 301 "E:\HT66F018_F12\tm1628\tm1628.c" 1
 301  0079  0001        	clr wdt
 303  007A              #line 303 "E:\HT66F018_F12\tm1628\tm1628.c"
 303  007A  2800     R  	jmp _L44
 303  007B  2800     R  	jmp $
 303  007C              _main endp
 303  007C              
 303  007C              @dummy endp
 303  007C              
 303  007C              #line 303 "E:\HT66F018_F12\tm1628\tm1628.c"
 303  007C              #pragma debug scope 1 1
 303  007C              public _col_staus
 303  0000              @HCCINIT	.section 'data'
  29  0000              #line 29 "E:\HT66F018_F12\tm1628\tm1628.c"
  29  0000              @HCCINIT .section 'data'
  29  0000              _col_staus label byte
  29  0000              #pragma debug variable 8 1 _col_staus "col_staus"
  29  0000              	db 1
  29  0000              @ROMDATA_BASE .section inpage 'code'
  29  0000              	db 1
  29  0001              @HCCINIT .section 'data'
  29  0000              @crom	.section 'crom'
  21  0000              #line 21 "E:\HT66F018_F12\tm1628\tm1628.c"
  21  0000              @crom	.section	'crom'
  21  0000              _Num_tab_8:
  21  0000              #pragma debug array 42 8 10 1
  21  0000              #pragma debug array 42 8 10 1
  21  0000              #pragma debug variable 42 1 _Num_tab_8 "Num_tab_8"
  21  0000              	db -65
  21  0001              	db -122
  21  0001              	db -37
  21  0002              	db -49
  21  0002              	db -26
  21  0003              	db -19
  21  0003              	db -3
  21  0004              	db -121
  21  0004              	db -1
  21  0005              	db -17
  20  0005              #line 20 "E:\HT66F018_F12\tm1628\tm1628.c"
  20  0005              @crom	.section	'crom'
  20  0005              _Num_tab_7:
  20  0005              #pragma debug variable 42 1 _Num_tab_7 "Num_tab_7"
  20  0005              	db 63
  20  0006              	db 6
  20  0006              	db 91
  20  0007              	db 79
  20  0007              	db 102
  20  0008              	db 109
  20  0008              	db 125
  20  0009              	db 7
  20  0009              	db 127
  20  000A              	db 111
  13  000A              #line 13 "E:\HT66F018_F12\tm1628\tm1628.c"
  13  000A              public _rtc_date
  13  0000              @HCCINIT0 .section 'data'
  13  0000  0003[       _rtc_date	db 3 dup(0)
文件：tm1628.c     编译器版本 HGASM 0202 页次17

            00
            ]
  13  0003              #pragma debug struct_end
  13  0003              #pragma debug struct_end
  13  0003              #pragma debug variable 43 1 _rtc_date "rtc_date"
  13  0003              
  13  0001              @HCCINIT .section 'data'

 200  0001              #line 200 "E:\HT66F018_F12\tm1628\init.h"
 200  0001              public _bBbSound
 200  0003              @HCCINIT0 .section 'data'
 200  0003              _bBbSound	db 0
 200  0004              #pragma debug variable 7 1 _bBbSound "bBbSound"
 200  0004              
 200  0001              @HCCINIT .section 'data'
 199  0001              #line 199 "E:\HT66F018_F12\tm1628\init.h"
 199  0001              public _bbCnt
 199  0004              @HCCINIT0 .section 'data'
 199  0004              _bbCnt	db 0
 199  0005              #pragma debug variable 8 1 _bbCnt "bbCnt"
 199  0005              
 199  0001              @HCCINIT .section 'data'
 198  0001              #line 198 "E:\HT66F018_F12\tm1628\init.h"
 198  0001              public _bbTime
 198  0005              @HCCINIT0 .section 'data'
 198  0005  0002[       _bbTime	db 2 dup(0)
            00
            ]
 198  0007              #pragma debug variable 12 1 _bbTime "bbTime"
 198  0007              
 198  0001              @HCCINIT .section 'data'
 197  0001              #line 197 "E:\HT66F018_F12\tm1628\init.h"
 197  0001              public _bbRam
 197  0007              @HCCINIT0 .section 'data'
 197  0007              _bbRam	db 0
 197  0008              #pragma debug variable 8 1 _bbRam "bbRam"
 197  0008              
 197  0001              @HCCINIT .section 'data'
 194  0001              #line 194 "E:\HT66F018_F12\tm1628\init.h"
 194  0001              public _num8
 194  0008              @HCCINIT0 .section 'data'
 194  0008              _num8	db 0
 194  0009              #pragma debug variable 8 1 _num8 "num8"
 194  0009              
 194  0001              @HCCINIT .section 'data'
 193  0001              #line 193 "E:\HT66F018_F12\tm1628\init.h"
 193  0001              public _num7
 193  0009              @HCCINIT0 .section 'data'
 193  0009              _num7	db 0
 193  000A              #pragma debug variable 8 1 _num7 "num7"
 193  000A              
 193  0001              @HCCINIT .section 'data'
 192  0001              #line 192 "E:\HT66F018_F12\tm1628\init.h"
 192  0001              public _num6
 192  000A              @HCCINIT0 .section 'data'
 192  000A              _num6	db 0
 192  000B              #pragma debug variable 8 1 _num6 "num6"
 192  000B              
 192  0001              @HCCINIT .section 'data'
 191  0001              #line 191 "E:\HT66F018_F12\tm1628\init.h"
文件：init.h       编译器版本 HGASM 0202 页次18

 191  0001              public _num5
 191  000B              @HCCINIT0 .section 'data'
 191  000B              _num5	db 0
 191  000C              #pragma debug variable 8 1 _num5 "num5"
 191  000C              
 191  0001              @HCCINIT .section 'data'
 190  0001              #line 190 "E:\HT66F018_F12\tm1628\init.h"
 190  0001              public _num4
 190  000C              @HCCINIT0 .section 'data'
 190  000C  0002[       _num4	db 2 dup(0)
            00
            ]
 190  000E              #pragma debug variable 12 1 _num4 "num4"
 190  000E              
 190  0001              @HCCINIT .section 'data'
 189  0001              #line 189 "E:\HT66F018_F12\tm1628\init.h"
 189  0001              public _num3
 189  000E              @HCCINIT0 .section 'data'
 189  000E  0002[       _num3	db 2 dup(0)
            00
            ]
 189  0010              #pragma debug variable 12 1 _num3 "num3"
 189  0010              
 189  0001              @HCCINIT .section 'data'
 188  0001              #line 188 "E:\HT66F018_F12\tm1628\init.h"
 188  0001              public _num2
 188  0010              @HCCINIT0 .section 'data'
 188  0010              _num2	db 0
 188  0011              #pragma debug variable 8 1 _num2 "num2"
 188  0011              
 188  0001              @HCCINIT .section 'data'
 187  0001              #line 187 "E:\HT66F018_F12\tm1628\init.h"
 187  0001              public _num1
 187  0011              @HCCINIT0 .section 'data'
 187  0011              _num1	db 0
 187  0012              #pragma debug variable 8 1 _num1 "num1"
 187  0012              
 187  0001              @HCCINIT .section 'data'
 185  0001              #line 185 "E:\HT66F018_F12\tm1628\init.h"
 185  0001              public _wei
 185  0012              @HCCINIT0 .section 'data'
 185  0012              _wei	db 0
 185  0013              #pragma debug variable 8 1 _wei "wei"
 185  0013              
 185  0001              @HCCINIT .section 'data'
 183  0001              #line 183 "E:\HT66F018_F12\tm1628\init.h"
 183  0001              public _sum1
 183  0013              @HCCINIT0 .section 'data'
 183  0013  0002[       _sum1	db 2 dup(0)
            00
            ]
 183  0015              #pragma debug variable 12 1 _sum1 "sum1"
 183  0015              
 183  0001              @HCCINIT .section 'data'
 182  0001              #line 182 "E:\HT66F018_F12\tm1628\init.h"
 182  0001              public _sum
 182  0015              @HCCINIT0 .section 'data'
 182  0015  0002[       _sum	db 2 dup(0)
            00
            ]
文件：init.h       编译器版本 HGASM 0202 页次19

 182  0017              #pragma debug variable 12 1 _sum "sum"
 182  0017              
 182  0001              @HCCINIT .section 'data'
 180  0001              #line 180 "E:\HT66F018_F12\tm1628\init.h"
 180  0001              public _value
 180  0017              @HCCINIT0 .section 'data'
 180  0017              _value	db 0
 180  0018              #pragma debug variable 7 1 _value "value"
 180  0018              
 180  0001              @HCCINIT .section 'data'
 179  0001              #line 179 "E:\HT66F018_F12\tm1628\init.h"
 179  0001              public _keystep
 179  0018              @HCCINIT0 .section 'data'
 179  0018              _keystep	db 0
 179  0019              #pragma debug variable 8 1 _keystep "keystep"
 179  0019              
 179  0001              @HCCINIT .section 'data'
 178  0001              #line 178 "E:\HT66F018_F12\tm1628\init.h"
 178  0001              public _step3
 178  0019              @HCCINIT0 .section 'data'
 178  0019              _step3	db 0
 178  001A              #pragma debug variable 8 1 _step3 "step3"
 178  001A              
 178  0001              @HCCINIT .section 'data'
 177  0001              #line 177 "E:\HT66F018_F12\tm1628\init.h"
 177  0001              public _step2
 177  001A              @HCCINIT0 .section 'data'
 177  001A              _step2	db 0
 177  001B              #pragma debug variable 8 1 _step2 "step2"
 177  001B              
 177  0001              @HCCINIT .section 'data'
 176  0001              #line 176 "E:\HT66F018_F12\tm1628\init.h"
 176  0001              public _step1
 176  001B              @HCCINIT0 .section 'data'
 176  001B              _step1	db 0
 176  001C              #pragma debug variable 8 1 _step1 "step1"
 176  001C              
 176  0001              @HCCINIT .section 'data'
 175  0001              #line 175 "E:\HT66F018_F12\tm1628\init.h"
 175  0001              public _step
 175  001C              @HCCINIT0 .section 'data'
 175  001C              _step	db 0
 175  001D              #pragma debug variable 8 1 _step "step"
 175  001D              
 175  0001              @HCCINIT .section 'data'
 174  0001              #line 174 "E:\HT66F018_F12\tm1628\init.h"
 174  0001              public _data
 174  001D              @HCCINIT0 .section 'data'
 174  001D              _data	db 0
 174  001E              #pragma debug variable 8 1 _data "data"
 174  001E              
 174  0001              @HCCINIT .section 'data'
 172  0001              #line 172 "E:\HT66F018_F12\tm1628\init.h"
 172  0001              public _t2s
 172  001E              @HCCINIT0 .section 'data'
 172  001E              _t2s	db 0
 172  001F              #pragma debug variable 8 1 _t2s "t2s"
 172  001F              
 172  0001              @HCCINIT .section 'data'
 171  0001              #line 171 "E:\HT66F018_F12\tm1628\init.h"
文件：init.h       编译器版本 HGASM 0202 页次20

 171  0001              public _t10s
 171  001F              @HCCINIT0 .section 'data'
 171  001F              _t10s	db 0
 171  0020              #pragma debug variable 8 1 _t10s "t10s"
 171  0020              
 171  0001              @HCCINIT .section 'data'
 170  0001              #line 170 "E:\HT66F018_F12\tm1628\init.h"
 170  0001              public _tms4
 170  0020              @HCCINIT0 .section 'data'
 170  0020              _tms4	db 0
 170  0021              #pragma debug variable 8 1 _tms4 "tms4"
 170  0021              
 170  0001              @HCCINIT .section 'data'
 169  0001              #line 169 "E:\HT66F018_F12\tm1628\init.h"
 169  0001              public _tms3
 169  0021              @HCCINIT0 .section 'data'
 169  0021              _tms3	db 0
 169  0022              #pragma debug variable 8 1 _tms3 "tms3"
 169  0022              
 169  0001              @HCCINIT .section 'data'
 168  0001              #line 168 "E:\HT66F018_F12\tm1628\init.h"
 168  0001              public _tms2
 168  0022              @HCCINIT0 .section 'data'
 168  0022              _tms2	db 0
 168  0023              #pragma debug variable 8 1 _tms2 "tms2"
 168  0023              
 168  0001              @HCCINIT .section 'data'
 167  0001              #line 167 "E:\HT66F018_F12\tm1628\init.h"
 167  0001              public _tms1
 167  0023              @HCCINIT0 .section 'data'
 167  0023              _tms1	db 0
 167  0024              #pragma debug variable 8 1 _tms1 "tms1"
 167  0024              
 167  0001              @HCCINIT .section 'data'
 166  0001              #line 166 "E:\HT66F018_F12\tm1628\init.h"
 166  0001              public _tms
 166  0024              @HCCINIT0 .section 'data'
 166  0024  0002[       _tms	db 2 dup(0)
            00
            ]
 166  0026              #pragma debug variable 12 1 _tms "tms"
 166  0026              
 166  0001              @HCCINIT .section 'data'
 163  0001              #line 163 "E:\HT66F018_F12\tm1628\init.h"
 163  0001              public _bj_second
 163  0026              @HCCINIT0 .section 'data'
 163  0026              _bj_second	db 0
 163  0027              #pragma debug variable 7 1 _bj_second "bj_second"
 163  0027              
 163  0001              @HCCINIT .section 'data'
 162  0001              #line 162 "E:\HT66F018_F12\tm1628\init.h"
 162  0001              public _bj_min
 162  0027              @HCCINIT0 .section 'data'
 162  0027              _bj_min	db 0
 162  0028              #pragma debug variable 7 1 _bj_min "bj_min"
 162  0028              
 162  0001              @HCCINIT .section 'data'
 160  0001              #line 160 "E:\HT66F018_F12\tm1628\init.h"
 160  0001              public _peking_min1
 160  0028              @HCCINIT0 .section 'data'
文件：init.h       编译器版本 HGASM 0202 页次21

 160  0028              _peking_min1	db 0
 160  0029              #pragma debug variable 7 1 _peking_min1 "peking_min1"
 160  0029              
 160  0001              @HCCINIT .section 'data'
 159  0001              #line 159 "E:\HT66F018_F12\tm1628\init.h"
 159  0001              public _peking_second1
 159  0029              @HCCINIT0 .section 'data'
 159  0029              _peking_second1	db 0
 159  002A              #pragma debug variable 7 1 _peking_second1 "peking_second1"
 159  002A              
 159  0001              @HCCINIT .section 'data'
 157  0001              #line 157 "E:\HT66F018_F12\tm1628\init.h"
 157  0001              public _peking_second
 157  002A              @HCCINIT0 .section 'data'
 157  002A              _peking_second	db 0
 157  002B              #pragma debug variable 7 1 _peking_second "peking_second"
 157  002B              
 157  0001              @HCCINIT .section 'data'
 156  0001              #line 156 "E:\HT66F018_F12\tm1628\init.h"
 156  0001              public _peking_min
 156  002B              @HCCINIT0 .section 'data'
 156  002B              _peking_min	db 0
 156  002C              #pragma debug variable 7 1 _peking_min "peking_min"
 156  002C              
 156  0001              @HCCINIT .section 'data'
 155  0001              #line 155 "E:\HT66F018_F12\tm1628\init.h"
 155  0001              public _peking_hour
 155  002C              @HCCINIT0 .section 'data'
 155  002C              _peking_hour	db 0
 155  002D              #pragma debug variable 7 1 _peking_hour "peking_hour"
 155  002D              
 155  0001              @HCCINIT .section 'data'
 153  0001              #line 153 "E:\HT66F018_F12\tm1628\init.h"
 153  0001              public _alarm_second
 153  002D              @HCCINIT0 .section 'data'
 153  002D              _alarm_second	db 0
 153  002E              #pragma debug variable 7 1 _alarm_second "alarm_second"
 153  002E              
 153  0001              @HCCINIT .section 'data'
 152  0001              #line 152 "E:\HT66F018_F12\tm1628\init.h"
 152  0001              public _alarm_min
 152  002E              @HCCINIT0 .section 'data'
 152  002E              _alarm_min	db 0
 152  002F              #pragma debug variable 7 1 _alarm_min "alarm_min"
 152  002F              
 152  0001              @HCCINIT .section 'data'
 151  0001              #line 151 "E:\HT66F018_F12\tm1628\init.h"
 151  0001              public _alarm_hour
 151  002F              @HCCINIT0 .section 'data'
 151  002F              _alarm_hour	db 0
 151  0030              #pragma debug variable 7 1 _alarm_hour "alarm_hour"
 151  0030              
 151  0001              @HCCINIT .section 'data'
  63  0001              #line 63 "E:\HT66F018_F12\tm1628\init.h"
  63  0001              public _uF7
  63  0030              @HCCINIT0 .section 'data'
  63  0030              _uF7	db 0
  63  0031              #pragma debug struct_end
  63  0031              #pragma debug struct_end
  63  0031              #pragma debug union_end
文件：init.h       编译器版本 HGASM 0202 页次22

  63  0031              #pragma debug union_end
  63  0031              #pragma debug variable 45 1 _uF7 "uF7"
  63  0031              
  63  0001              @HCCINIT .section 'data'
  63  0001              #line 63 "E:\HT66F018_F12\tm1628\init.h"
  63  0001              public _uF6
  63  0031              @HCCINIT0 .section 'data'
  63  0031              _uF6	db 0
  63  0032              #pragma debug variable 45 1 _uF6 "uF6"
  63  0032              
  63  0001              @HCCINIT .section 'data'
  63  0001              #line 63 "E:\HT66F018_F12\tm1628\init.h"
  63  0001              public _uF5
  63  0032              @HCCINIT0 .section 'data'
  63  0032              _uF5	db 0
  63  0033              #pragma debug variable 45 1 _uF5 "uF5"
  63  0033              
  63  0001              @HCCINIT .section 'data'
  63  0001              #line 63 "E:\HT66F018_F12\tm1628\init.h"
  63  0001              public _uF4
  63  0033              @HCCINIT0 .section 'data'
  63  0033              _uF4	db 0
  63  0034              #pragma debug variable 45 1 _uF4 "uF4"
  63  0034              
  63  0001              @HCCINIT .section 'data'
  63  0001              #line 63 "E:\HT66F018_F12\tm1628\init.h"
  63  0001              public _uF3
  63  0034              @HCCINIT0 .section 'data'
  63  0034              _uF3	db 0
  63  0035              #pragma debug variable 45 1 _uF3 "uF3"
  63  0035              
  63  0001              @HCCINIT .section 'data'
  63  0001              #line 63 "E:\HT66F018_F12\tm1628\init.h"
  63  0001              public _uF2
  63  0035              @HCCINIT0 .section 'data'
  63  0035              _uF2	db 0
  63  0036              #pragma debug variable 45 1 _uF2 "uF2"
  63  0036              
  63  0001              @HCCINIT .section 'data'
  63  0001              #line 63 "E:\HT66F018_F12\tm1628\init.h"
  63  0001              public _uF1
  63  0036              @HCCINIT0 .section 'data'
  63  0036              _uF1	db 0
  63  0037              #pragma debug variable 45 1 _uF1 "uF1"
  63  0037              
  63  0001              @HCCINIT .section 'data'
  63  0001              #pragma debug variable 8 1 ___mp1 "__mp1" 1
  63  0001              #pragma debug struct_end
  63  0001              #pragma debug struct_end
  63  0001              #pragma debug union_end
  63  0001              #pragma debug union_end
  63  0001              #pragma debug variable 47 1 ___bp "__bp" 1
  63  0001              #pragma debug struct_end
  63  0001              #pragma debug struct_end
  63  0001              #pragma debug union_end
  63  0001              #pragma debug union_end
  63  0001              #pragma debug variable 49 1 ___smod "__smod" 1
  63  0001              #pragma debug struct_end
  63  0001              #pragma debug struct_end
  63  0001              #pragma debug union_end
文件：init.h       编译器版本 HGASM 0202 页次23

  63  0001              #pragma debug union_end
  63  0001              #pragma debug variable 51 1 ___integ "__integ" 1
  63  0001              #pragma debug struct_end
  63  0001              #pragma debug struct_end
  63  0001              #pragma debug union_end
  63  0001              #pragma debug union_end
  63  0001              #pragma debug variable 53 1 ___intc0 "__intc0" 1
  63  0001              #pragma debug struct_end
  63  0001              #pragma debug struct_end
  63  0001              #pragma debug union_end
  63  0001              #pragma debug union_end
  63  0001              #pragma debug variable 55 1 ___intc1 "__intc1" 1
  63  0001              #pragma debug struct_end
  63  0001              #pragma debug struct_end
  63  0001              #pragma debug union_end
  63  0001              #pragma debug union_end
  63  0001              #pragma debug variable 57 1 ___mfi0 "__mfi0" 1
  63  0001              #pragma debug struct_end
  63  0001              #pragma debug struct_end
  63  0001              #pragma debug union_end
  63  0001              #pragma debug union_end
  63  0001              #pragma debug variable 59 1 ___pa "__pa" 1
  63  0001              #pragma debug struct_end
  63  0001              #pragma debug struct_end
  63  0001              #pragma debug union_end
  63  0001              #pragma debug union_end
  63  0001              #pragma debug variable 61 1 ___pac "__pac" 1
  63  0001              #pragma debug struct_end
  63  0001              #pragma debug struct_end
  63  0001              #pragma debug union_end
  63  0001              #pragma debug union_end
  63  0001              #pragma debug variable 63 1 ___papu "__papu" 1
  63  0001              #pragma debug struct_end
  63  0001              #pragma debug struct_end
  63  0001              #pragma debug union_end
  63  0001              #pragma debug union_end
  63  0001              #pragma debug variable 65 1 ___tmpc "__tmpc" 1
  63  0001              #pragma debug struct_end
  63  0001              #pragma debug struct_end
  63  0001              #pragma debug union_end
  63  0001              #pragma debug union_end
  63  0001              #pragma debug variable 67 1 ___wdtc "__wdtc" 1
  63  0001              #pragma debug struct_end
  63  0001              #pragma debug struct_end
  63  0001              #pragma debug union_end
  63  0001              #pragma debug union_end
  63  0001              #pragma debug variable 69 1 ___tbc "__tbc" 1
  63  0001              #pragma debug struct_end
  63  0001              #pragma debug struct_end
  63  0001              #pragma debug union_end
  63  0001              #pragma debug union_end
  63  0001              #pragma debug variable 71 1 ___acerl "__acerl" 1
  63  0001              #pragma debug struct_end
  63  0001              #pragma debug struct_end
  63  0001              #pragma debug union_end
  63  0001              #pragma debug union_end
  63  0001              #pragma debug variable 73 1 ___pb "__pb" 1
  63  0001              #pragma debug struct_end
  63  0001              #pragma debug struct_end
  63  0001              #pragma debug union_end
文件：init.h       编译器版本 HGASM 0202 页次24

  63  0001              #pragma debug union_end
  63  0001              #pragma debug variable 75 1 ___pbc "__pbc" 1
  63  0001              #pragma debug struct_end
  63  0001              #pragma debug struct_end
  63  0001              #pragma debug union_end
  63  0001              #pragma debug union_end
  63  0001              #pragma debug variable 77 1 ___pbpu "__pbpu" 1
  63  0001              #pragma debug struct_end
  63  0001              #pragma debug struct_end
  63  0001              #pragma debug union_end
  63  0001              #pragma debug union_end
  63  0001              #pragma debug variable 79 1 ___tm0c0 "__tm0c0" 1
  63  0001              #pragma debug struct_end
  63  0001              #pragma debug struct_end
  63  0001              #pragma debug union_end
  63  0001              #pragma debug union_end
  63  0001              #pragma debug variable 81 1 ___tm0c1 "__tm0c1" 1
  63  0001              #pragma debug variable 8 1 ___tm0al "__tm0al" 1
  63  0001              #pragma debug variable 8 1 ___tm0ah "__tm0ah" 1
  63  0001              #pragma debug struct_end
  63  0001              #pragma debug struct_end
  63  0001              #pragma debug union_end
  63  0001              #pragma debug union_end
  63  0001              #pragma debug variable 83 1 ___cpc "__cpc" 1
  63  0001              #pragma debug struct_end
  63  0001              #pragma debug struct_end
  63  0001              #pragma debug union_end
  63  0001              #pragma debug union_end
  63  0001              #pragma debug variable 85 1 ___pc "__pc" 1
  63  0001              #pragma debug struct_end
  63  0001              #pragma debug struct_end
  63  0001              #pragma debug union_end
  63  0001              #pragma debug union_end
  63  0001              #pragma debug variable 87 1 ___pcc "__pcc" 1
  63  0001              #pragma debug struct_end
  63  0001              #pragma debug struct_end
  63  0001              #pragma debug union_end
  63  0001              #pragma debug union_end
  63  0001              #pragma debug variable 89 1 ___pcpu "__pcpu" 1
  63  0001              #pragma debug variable 8 1 ___iar1 "__iar1" 1
  63  0001              extern r1:byte
  63  0001              extern r2:byte

 262  0001              #line 262 "E:\HT66F018_F12\tm1628\tm1628.c"
 262  0000              @code .section at 0 'code'
 262  0000  2800     R  	jmp _main_startup1
 262  0001              
 262  0001              extern _builtin_holtek_udivmodqi4_2:byte
 262  0001              extern _builtin_holtek_udivmodqi4:near
 262  0001              
 262  0001              ; 
 262  0001              ; Generated by holtek-gcc v3.19, Thu Jan 27 11:41:41 2022
 262  0001              ; Rebuild 718
 262  0001              ; end of file


        0 Errors, 0