文件：main.c       编译器版本 HGASM 0202 页次1


   1  0000              ; Generated by holtek-gcc v3.19, Fri Jan 21 10:13:26 2022
   2  0000              ; 
   3  0000              ; Configuration:
   4  0000              ;       without long instruction
   5  0000              ;       Single ROM, Multi-RAM
   6  0000              ;       bits_per_rom_unit:16
   7  0000              ;       with mp1
   8  0000              ;       with tbhp, address(0x9)
   9  0000              ;          Use tabrd-const
  10  0000              ;       
  11  0000              ;       
  12  0000              ;       
  13  0000              ; use 'tabrdc' instead of 'tabrd'
  14  0000              ;       
  15  0000              
  16  0000              #pragma translator "holtek-gcc 4.6.4" "3.19" "build 20130711"
  17  0000              ; Rebuild 718
  18  0000              
  19  0000              ir equ [2]
  20  0000              mp equ [3]
  21  0000              sbp equ [1]
  22  0000              acc equ [5]
  23  0000              bp equ [4]
  24  0000              tblp equ [7]
  25  0000              tbhp equ [9]
  26  0000              status equ [10]
  27  0000              c equ [10].0
  28  0000              ac equ [10].1
  29  0000              z equ [10].2
  30  0000              ov equ [10].3
  31  0000              intc equ [11]
  32  0000              
  33  0000              extern ra:byte
  34  0000              extern rb:byte
  35  0000              extern rc:byte
  36  0000              extern rd:byte
  37  0000              extern re:byte
  38  0000              extern rf:byte
  39  0000              extern rg:byte
  40  0000              extern rh:byte
  41  0000              extern _Crom2Prom:near
  42  0000              extern _Crom2PromNext:near
  43  0000              
  44  0000              RAMBANK 0 @HCCINIT, @HCCINIT0
  45  0000              
  46  0000              RAMBANK 0 @BITDATASEC, @BITDATASEC1
  47  0000              @HCCINIT	.section 'data'
  48  0000              @HCCINIT0	.section 'data'
  49  0000              @BITDATASEC	 .section 'data'
  50  0000              @BITDATASEC1	 .section 'data'
  51  0000              
  52  0000              #pragma debug scope 1 1
  53  0000              	extern __DELAY3:near
  54  0000              	extern __DELAYX3:near
  55  0000              	extern __DELAYX6:near
  56  0000              	extern __DELAYY5:near
  57  0000              	extern __DELAYY3:near
  58  0000              	extern _builtin_holtek_delay_2:byte
  59  0000              ___pa equ [20]
文件：main.ASM     编译器版本 HGASM 0202 页次2

  60  0000              ___pac equ [21]
  61  0000              ___papu equ [22]
  62  0000              ___intc0 equ [14]
  63  0000              ___pc equ [64]
  64  0000              public _main
  65  0000              #pragma debug scope 2 1

  25  0000              #line 25 "E:\HT66F018_F12\main_new\main.c"
  25  0000              IFDEF WITH_DEFAULT_STARTUP
  25  0000              extern _main_initial0:near
  25  0000              extern _main_startup:near
  25  0000              ENDIF
  25  0000              
  25  0000              ROMBANK 0 @start
  25  0000              @start .section com_l 'code'
  25  0000              _main_startup1:
  25  0000              @start .section com_e 'code'
  25  0000  2800     R  	jmp _main
  25  0001              
  25  0000              _main .section 'code'
  25  0000              _main proc
  25  0000  0002[           local _main_2 db 2 dup(?)
            00
            ]
  25  0002              #pragma debug variable 8 2 _main_2+1 "rtc_oldmin"
  29  0002              #line 29 "E:\HT66F018_F12\main_new\main.c"
  29  0002              ;# 29 "E:\HT66F018_F12\main_new\main.c" 1
  29  0000              	IF 100>263690
  29  0000              ;# 29 "E:\HT66F018_F12\main_new\main.c" 1
  29  0000              	ERRMESSAGE 'the value 100of the argument exceeds the maxinum 263690'
  29  0000              	ENDIF
  29  0000              ;# 29 "E:\HT66F018_F12\main_new\main.c" 1
  29  0000              	IF 100<0
  29  0000              ;# 29 "E:\HT66F018_F12\main_new\main.c" 1
  29  0000              	ERRMESSAGE 'the value 100 of the argument exceeds the mininum 0'
  29  0000              	ENDIF
  29  0000              ;# 29 "E:\HT66F018_F12\main_new\main.c" 1
  29  0000              	IF 100==0
  29  0000              ;# 29 "E:\HT66F018_F12\main_new\main.c" 1
  29  0000              	JMP $
  29  0000              	ENDIF
  29  0000              ;# 29 "E:\HT66F018_F12\main_new\main.c" 1
  29  0000              	IF 100==1
  29  0000              ;# 29 "E:\HT66F018_F12\main_new\main.c" 1
  29  0000              	NOP
  29  0000              	ENDIF
  29  0000              ;# 29 "E:\HT66F018_F12\main_new\main.c" 1
  29  0000              	IF 100==2
  29  0000              ;# 29 "E:\HT66F018_F12\main_new\main.c" 1
  29  0000              	NOP
  29  0000              ;# 29 "E:\HT66F018_F12\main_new\main.c" 1
  29  0000              	NOP
  29  0000              	ENDIF
  29  0000              ;# 29 "E:\HT66F018_F12\main_new\main.c" 1
  29  0000              	IF 100==3
  29  0000              ;# 29 "E:\HT66F018_F12\main_new\main.c" 1
  29  0000              	NOP
  29  0000              ;# 29 "E:\HT66F018_F12\main_new\main.c" 1
  29  0000              	NOP
  29  0000              ;# 29 "E:\HT66F018_F12\main_new\main.c" 1
文件：main.c       编译器版本 HGASM 0202 页次3

  29  0000              	NOP
  29  0000              	ENDIF
  29  0000              ;# 29 "E:\HT66F018_F12\main_new\main.c" 1
  29  0000              	IF (100<8) AND (100>3)
  29  0000              ;# 29 "E:\HT66F018_F12\main_new\main.c" 1
  29  0000              	CALL __DELAY3 + 7 -100
  29  0000              	ENDIF
  29  0000              ;# 29 "E:\HT66F018_F12\main_new\main.c" 1
  29  0000              	IF (100< 0404h) AND (100>7)
  29  0000              ;# 29 "E:\HT66F018_F12\main_new\main.c" 1
  29  0000  0F18        	MOV A,100/4-1
  29  0001              ;# 29 "E:\HT66F018_F12\main_new\main.c" 1
  29  0001  2000     E  	CALL __DELAYX3 + 3 -(100 MOD 4)
  29  0002              	ENDIF
  29  0002              ;# 29 "E:\HT66F018_F12\main_new\main.c" 1
  29  0002              	IF (100< 0x40B) AND (100> 0403h)
  29  0002              ;# 29 "E:\HT66F018_F12\main_new\main.c" 1
  29  0002              	MOV A,0 
  29  0002              ;# 29 "E:\HT66F018_F12\main_new\main.c" 1
  29  0002              	CALL __DELAYX6 + 0x40a -100
  29  0002              	ENDIF
  29  0002              ;# 29 "E:\HT66F018_F12\main_new\main.c" 1
  29  0002              	IF (100 >= 0x40b) AND ((((100-9)%0402h)/4+1)>256)
  29  0002              ;# 29 "E:\HT66F018_F12\main_new\main.c" 1
  29  0002              	MOV A,(100-9)/0402h
  29  0002              ;# 29 "E:\HT66F018_F12\main_new\main.c" 1
  29  0002              	MOV _builtin_holtek_delay_2,A
  29  0002              ;# 29 "E:\HT66F018_F12\main_new\main.c" 1
  29  0002              	MOV A,0
  29  0002              ;# 29 "E:\HT66F018_F12\main_new\main.c" 1
  29  0002              	CALL __DELAYY5 +5- (((100-9)%0402h)%6)
  29  0002              	ENDIF
  29  0002              ;# 29 "E:\HT66F018_F12\main_new\main.c" 1
  29  0002              	IF (100 >= 0x40b) AND ((((100-9)%0402h)/4+1)<=256)
  29  0002              ;# 29 "E:\HT66F018_F12\main_new\main.c" 1
  29  0002              	MOV A,(100-9)/0402h
  29  0002              ;# 29 "E:\HT66F018_F12\main_new\main.c" 1
  29  0002              	MOV _builtin_holtek_delay_2,A
  29  0002              ;# 29 "E:\HT66F018_F12\main_new\main.c" 1
  29  0002              	MOV A,((100-9)%0402h)/4+1
  29  0002              ;# 29 "E:\HT66F018_F12\main_new\main.c" 1
  29  0002              	CALL __DELAYY3 +3-(((100-9)%0402h)%4)
  29  0002              	ENDIF
  30  0002              #line 30 "E:\HT66F018_F12\main_new\main.c"
  30  0002  2000     E  	call _Init_clock
  32  0003              #line 32 "E:\HT66F018_F12\main_new\main.c"
  32  0003  1F00     E  	clr _GPIOA_INIT_2[2]
  32  0004  1F00     E  	clr _GPIOA_INIT_2[1]
  32  0005  1F00     E  	clr _GPIOA_INIT_2[0]
  32  0006  0F3A        	mov a,58
  32  0007  2000     E  	call _GPIOA_INIT
  33  0008              #line 33 "E:\HT66F018_F12\main_new\main.c"
  33  0008  1F00     E  	clr _GPIOB_INIT_2[1]
  33  0009  1F00     E  	clr _GPIOB_INIT_2[0]
  33  000A  0F78        	mov a,120
  33  000B  2000     E  	call _GPIOB_INIT
  34  000C              #line 34 "E:\HT66F018_F12\main_new\main.c"
  34  000C  1F00     E  	clr _GPIOC_INIT_2[1]
  34  000D  1F00     E  	clr _GPIOC_INIT_2[0]
  34  000E  0F01        	mov a,1
文件：main.c       编译器版本 HGASM 0202 页次4

  34  000F  2000     E  	call _GPIOC_INIT
  36  0010              #line 36 "E:\HT66F018_F12\main_new\main.c"
  36  0010  1F00     E  	clr _GPIOC_INIT_2[1]
  36  0011  0F01        	mov a,1
  36  0012  0080     E  	mov _GPIOC_INIT_2[0],a
  36  0013  0F06        	mov a,6
  36  0014  2000     E  	call _GPIOC_INIT
  38  0015              #line 38 "E:\HT66F018_F12\main_new\main.c"
  38  0015  2000     E  	call _init_TM1628
  40  0016              #line 40 "E:\HT66F018_F12\main_new\main.c"
  40  0016  2000     E  	call _rtc_init
  42  0017              #line 42 "E:\HT66F018_F12\main_new\main.c"
  42  0017  2000     E  	call _EEPROM_Init
  44  0018              #line 44 "E:\HT66F018_F12\main_new\main.c"
  44  0018  0F1F        	mov a,31
  44  0019  2000     E  	call _EEPROM_Read_Byte
  44  001A  0080     E  	mov ra,a
  44  001B  0700     E  	mov a,ra
  44  001C  0080     E  	mov _rtc_date[0],a
  45  001D              #line 45 "E:\HT66F018_F12\main_new\main.c"
  45  001D  0F20        	mov a,32
  45  001E  2000     E  	call _EEPROM_Read_Byte
  45  001F  0080     E  	mov ra,a
  45  0020  0700     E  	mov a,ra
  45  0021  0080     E  	mov _rtc_date[1],a
  48  0022              #line 48 "E:\HT66F018_F12\main_new\main.c"
  48  0022  3314        	set [20].6
  48  0023  3715        	clr [21].6
  48  0024  3316        	set [22].6
  52  0025              #line 52 "E:\HT66F018_F12\main_new\main.c"
  52  0025  2000     E  	call _ADC_Init
  54  0026              #line 54 "E:\HT66F018_F12\main_new\main.c"
  54  0026  0FE8        	mov a,-24
  54  0027  0080     E  	mov _use_delay_us_2[0],a
  54  0028  0F03        	mov a,3
  54  0029  0080     E  	mov _use_delay_us_2[1],a
  54  002A  2000     E  	call _use_delay_us
  56  002B              #line 56 "E:\HT66F018_F12\main_new\main.c"
  56  002B  300E        	set [14].0
  27  002C              #line 27 "E:\HT66F018_F12\main_new\main.c"
  27  002C  0F63        	mov a,99
  27  002D  0080     R  	mov _main_2[1],a
  27  002E              _L2:
  60  002E              #line 60 "E:\HT66F018_F12\main_new\main.c"
  60  002E              ;# 60 "E:\HT66F018_F12\main_new\main.c" 1
  60  002E  0001        	clr wdt
  62  002F              #line 62 "E:\HT66F018_F12\main_new\main.c"
  62  002F  2000     E  	call _key_scan
  62  0030  0080     R  	mov _main_2[0],a
  64  0031              #line 64 "E:\HT66F018_F12\main_new\main.c"
  64  0031  0700     R  	mov a,_main_2[0]
  64  0032  0A01        	sub a,1
  64  0033  3D0A        	sz z
  64  0034  2800     R  	jmp _L4
  64  0035  0A01        	sub a,(2)-(1)
  64  0036  3D0A        	sz z
  64  0037  2800     R  	jmp _L5
  64  0038  0700     R  	mov a,_main_2[0]
  64  0039  0A03        	sub a,3
  64  003A  3D0A        	sz z
文件：main.c       编译器版本 HGASM 0202 页次5

  64  003B  2800     R  	jmp _L6
  64  003C  0A01        	sub a,(4)-(3)
  64  003D  3D0A        	sz z
  64  003E  2800     R  	jmp _L7
  64  003F  0700     R  	mov a,_main_2[0]
  64  0040  0A05        	sub a,5
  64  0041  3D0A        	sz z
  64  0042  2800     R  	jmp _L8
  64  0043  0A01        	sub a,(6)-(5)
  64  0044  3D0A        	sz z
  64  0045  2800     R  	jmp _L9
  64  0046  0700     R  	mov a,_main_2[0]
  64  0047  0A07        	sub a,7
  64  0048  390A        	snz z
  64  0049  2800     R  	jmp _L3
 113  004A              #line 113 "E:\HT66F018_F12\main_new\main.c"
 113  004A  0FFB        	mov a,251
 113  004B  2000     E  	call _set_voice
 115  004C              #line 115 "E:\HT66F018_F12\main_new\main.c"
 115  004C  0FBB        	mov a,187
 115  004D  2800     R  	jmp _L29
 115  004E              _L7:
  68  004E              #line 68 "E:\HT66F018_F12\main_new\main.c"
  68  004E  1080     R  	sz _meal_flag[0]
  68  004F  2800     R  	jmp _L3
  70  0050              #line 70 "E:\HT66F018_F12\main_new\main.c"
  70  0050  2000     E  	call _set_time
  70  0051  2800     R  	jmp _L3
  70  0052              _L6:
  77  0052              #line 77 "E:\HT66F018_F12\main_new\main.c"
  77  0052  2000     E  	call _set_meal
  79  0053              #line 79 "E:\HT66F018_F12\main_new\main.c"
  79  0053  2800     R  	jmp _L3
  79  0054              _L8:
  83  0054              #line 83 "E:\HT66F018_F12\main_new\main.c"
  83  0054  1F00     R  	clr _feed[0]
  84  0055              #line 84 "E:\HT66F018_F12\main_new\main.c"
  84  0055  1F00     R  	clr _feed[1]
  85  0056              #line 85 "E:\HT66F018_F12\main_new\main.c"
  85  0056  0F01        	mov a,1
  85  0057  0080     R  	mov _feed[2],a
  86  0058              #line 86 "E:\HT66F018_F12\main_new\main.c"
  86  0058  0F01        	mov a,1
  86  0059  0080     R  	mov _feed[3],a
  88  005A              #line 88 "E:\HT66F018_F12\main_new\main.c"
  88  005A  0F01        	mov a,1
  88  005B  0080     E  	mov _feed_going[0],a
  90  005C              #line 90 "E:\HT66F018_F12\main_new\main.c"
  90  005C  2800     R  	jmp _L3
  90  005D              _L9:
  94  005D              #line 94 "E:\HT66F018_F12\main_new\main.c"
  94  005D  1700     R  	sdza _record_flag[0]
  94  005E  2800     R  	jmp _LI1
  94  005F  2800     R  	jmp _L12
  94  0060              _LI1:
  96  0060              #line 96 "E:\HT66F018_F12\main_new\main.c"
  96  0060  0F01        	mov a,1
  96  0061  0080     R  	mov _record_flag[0],a
  97  0062              #line 97 "E:\HT66F018_F12\main_new\main.c"
  97  0062  0FFE        	mov a,254
文件：main.c       编译器版本 HGASM 0202 页次6

  97  0063  2000     E  	call _set_voice
  99  0064              #line 99 "E:\HT66F018_F12\main_new\main.c"
  99  0064  0FFF        	mov a,255
  99  0065  2800     R  	jmp _L29
  99  0066              _L12:
 103  0066              #line 103 "E:\HT66F018_F12\main_new\main.c"
 103  0066  1F00     R  	clr _record_flag[0]
 104  0067              #line 104 "E:\HT66F018_F12\main_new\main.c"
 104  0067  0FFF        	mov a,255
 104  0068  2000     E  	call _set_voice
 106  0069              #line 106 "E:\HT66F018_F12\main_new\main.c"
 106  0069  0FAA        	mov a,170
 106  006A              _L29:
 106  006A  2000     E  	call _UART_SoftWareSendByte
 106  006B  2800     R  	jmp _L3
 106  006C              _L4:
 122  006C              #line 122 "E:\HT66F018_F12\main_new\main.c"
 122  006C  0FE8        	mov a,-24
 122  006D  0080     E  	mov _use_delay_us_2[0],a
 122  006E  0F03        	mov a,3
 122  006F  0080     E  	mov _use_delay_us_2[1],a
 122  0070  2000     E  	call _use_delay_us
 123  0071              #line 123 "E:\HT66F018_F12\main_new\main.c"
 123  0071  1400     R  	inca _meal_flag[0]
 123  0072  0080     E  	mov ra,a
 123  0073  0700     E  	mov a,ra
 123  0074  0080     R  	mov _meal_flag[0],a
 124  0075              #line 124 "E:\HT66F018_F12\main_new\main.c"
 124  0075  0F06        	mov a,6
 124  0076  0200     E  	sub a,ra
 124  0077  1185        	swap acc
 124  0078  040A        	xor a,status
 124  0079  3985        	snz acc.3
 124  007A  2800     R  	jmp _L3
 125  007B              #line 125 "E:\HT66F018_F12\main_new\main.c"
 125  007B  1F00     R  	clr _meal_flag[0]
 125  007C  2800     R  	jmp _L3
 125  007D              _L5:
 131  007D              #line 131 "E:\HT66F018_F12\main_new\main.c"
 131  007D  0FE8        	mov a,-24
 131  007E  0080     E  	mov _use_delay_us_2[0],a
 131  007F  0F03        	mov a,3
 131  0080  0080     E  	mov _use_delay_us_2[1],a
 131  0081  2000     E  	call _use_delay_us
 132  0082              #line 132 "E:\HT66F018_F12\main_new\main.c"
 132  0082  1500     R  	deca _meal_flag[0]
 132  0083  0080     E  	mov ra,a
 132  0084  0700     E  	mov a,ra
 132  0085  0080     R  	mov _meal_flag[0],a
 133  0086              #line 133 "E:\HT66F018_F12\main_new\main.c"
 133  0086  3800     E  	snz ra.7
 133  0087  2800     R  	jmp _L3
 134  0088              #line 134 "E:\HT66F018_F12\main_new\main.c"
 134  0088  0F06        	mov a,6
 134  0089  0080     R  	mov _meal_flag[0],a
 134  008A              _L3:
 139  008A              #line 139 "E:\HT66F018_F12\main_new\main.c"
 139  008A  0700     R  	mov a,_meal_flag[0]
 139  008B  0080     E  	mov ra,a
 139  008C  3C00     E  	sz ra.7
文件：main.c       编译器版本 HGASM 0202 页次7

 139  008D  2800     R  	jmp _L14
 139  008E  1080     E  	sz ra
 139  008F  2800     R  	jmp _LI2
 139  0090  2800     R  	jmp _L14
 139  0091              _LI2:
 141  0091              #line 141 "E:\HT66F018_F12\main_new\main.c"
 141  0091  0700     E  	mov a,ra
 141  0092  2000     E  	call _get_meal
 141  0093  2800     R  	jmp _L15
 141  0094              _L14:
 145  0094              #line 145 "E:\HT66F018_F12\main_new\main.c"
 145  0094  2000     E  	call _rtc_lcd
 145  0095              _L15:
 148  0095              #line 148 "E:\HT66F018_F12\main_new\main.c"
 148  0095  0700     R  	mov a,_record_flag[0]
 148  0096  0A02        	sub a,2
 148  0097  390A        	snz z
 148  0098  2800     R  	jmp _L16
 150  0099              #line 150 "E:\HT66F018_F12\main_new\main.c"
 150  0099  1F00     R  	clr _record_flag[0]
 151  009A              #line 151 "E:\HT66F018_F12\main_new\main.c"
 151  009A  0FFF        	mov a,255
 151  009B  2000     E  	call _set_voice
 153  009C              #line 153 "E:\HT66F018_F12\main_new\main.c"
 153  009C  0F55        	mov a,85
 153  009D  2000     E  	call _UART_SoftWareSendByte
 153  009E              _L16:
 158  009E              #line 158 "E:\HT66F018_F12\main_new\main.c"
 158  009E  1080     R  	sz _time_save_flag[0]
 158  009F  2800     R  	jmp _LI3
 158  00A0  2800     R  	jmp _L17
 158  00A1              _LI3:
 160  00A1              #line 160 "E:\HT66F018_F12\main_new\main.c"
 160  00A1  1F00     R  	clr _time_save_flag[0]
 161  00A2              #line 161 "E:\HT66F018_F12\main_new\main.c"
 161  00A2  2000     E  	call _time_save
 161  00A3              _L17:
 164  00A3              #line 164 "E:\HT66F018_F12\main_new\main.c"
 164  00A3  0700     E  	mov a,_lcd_timeout[0]
 164  00A4  0C10        	xor a,16
 164  00A5  0700     E  	mov a,_lcd_timeout[1]
 164  00A6  3D0A        	sz z
 164  00A7  0C0E        	xor a,14
 164  00A8  390A        	snz z
 164  00A9  2800     R  	jmp _L18
 166  00AA              #line 166 "E:\HT66F018_F12\main_new\main.c"
 166  00AA  1F00     R  	clr _meal_flag[0]
 166  00AB              _L18:
 169  00AB              #line 169 "E:\HT66F018_F12\main_new\main.c"
 169  00AB  0700     R  	mov a,_main_2[1]
 169  00AC  0200     E  	sub a,_rtc_date[1]
 169  00AD  3D0A        	sz z
 169  00AE  2800     R  	jmp _L19
 171  00AF              #line 171 "E:\HT66F018_F12\main_new\main.c"
 171  00AF  0700     E  	mov a,_rtc_date[1]
 171  00B0  0080     R  	mov _main_2[1],a
 173  00B1              #line 173 "E:\HT66F018_F12\main_new\main.c"
 173  00B1  0F00     R  	mov a,low offset _feed
 173  00B2  0080     E  	mov _feed_scan_2[0],a
 173  00B3  0F00     R  	mov a,high offset _feed
文件：main.c       编译器版本 HGASM 0202 页次8

 173  00B4  0080     E  	mov _feed_scan_2[1],a
 173  00B5  2000     E  	call _feed_scan
 173  00B6  2800     R  	jmp _L20
 173  00B7              _L19:
 175  00B7              #line 175 "E:\HT66F018_F12\main_new\main.c"
 175  00B7  1080     R  	sz _feed_detect_again[0]
 175  00B8  2800     R  	jmp _LI4
 175  00B9  2800     R  	jmp _L20
 175  00BA              _LI4:
 177  00BA              #line 177 "E:\HT66F018_F12\main_new\main.c"
 177  00BA  0700     E  	mov a,_feed_error[0]
 177  00BB  0E03        	and a,3
 177  00BC  0080     E  	mov ra,a
 177  00BD  1080     E  	sz ra
 177  00BE  2800     R  	jmp _L20
 179  00BF              #line 179 "E:\HT66F018_F12\main_new\main.c"
 179  00BF  0F01        	mov a,1
 179  00C0  0080     E  	mov _feed_going[0],a
 179  00C1              _L20:
 183  00C1              #line 183 "E:\HT66F018_F12\main_new\main.c"
 183  00C1  1080     E  	sz _feed_going[0]
 183  00C2  2800     R  	jmp _LI5
 183  00C3  2800     R  	jmp _L21
 183  00C4              _LI5:
 186  00C4              #line 186 "E:\HT66F018_F12\main_new\main.c"
 186  00C4  0F00     R  	mov a,low offset _feed
 186  00C5  0080     E  	mov _feed_run_2[0],a
 186  00C6  0F00     R  	mov a,high offset _feed
 186  00C7  0080     E  	mov _feed_run_2[1],a
 186  00C8  2000     E  	call _feed_run
 186  00C9  0080     E  	mov ra,a
 186  00CA  0700     E  	mov a,ra
 186  00CB  0080     E  	mov _feed_error[0],a
 187  00CC              #line 187 "E:\HT66F018_F12\main_new\main.c"
 187  00CC  2000     E  	call _time_save
 188  00CD              #line 188 "E:\HT66F018_F12\main_new\main.c"
 188  00CD  0700     E  	mov a,_feed_error[0]
 188  00CE  0E03        	and a,3
 188  00CF  0080     E  	mov ra,a
 188  00D0  1080     E  	sz ra
 188  00D1  2800     R  	jmp _LI6
 188  00D2  2800     R  	jmp _L22
 188  00D3              _LI6:
 190  00D3              #line 190 "E:\HT66F018_F12\main_new\main.c"
 190  00D3  0F01        	mov a,1
 190  00D4  0080     R  	mov _feed_detect_again[0],a
 190  00D5  2800     R  	jmp _L23
 190  00D6              _L22:
 194  00D6              #line 194 "E:\HT66F018_F12\main_new\main.c"
 194  00D6  1F00     R  	clr _feed_detect_again[0]
 194  00D7              _L23:
 197  00D7              #line 197 "E:\HT66F018_F12\main_new\main.c"
 197  00D7  1F00     E  	clr _feed_going[0]
 197  00D8  2800     R  	jmp _L24
 197  00D9              _L21:
 201  00D9              #line 201 "E:\HT66F018_F12\main_new\main.c"
 201  00D9  2000     E  	call _battery_detect
 201  00DA              _L24:
 206  00DA              #line 206 "E:\HT66F018_F12\main_new\main.c"
 206  00DA  38C0        	snz [64].1
文件：main.c       编译器版本 HGASM 0202 页次9

 206  00DB  2800     R  	jmp _L25
 208  00DC              #line 208 "E:\HT66F018_F12\main_new\main.c"
 208  00DC  0F03        	mov a,3
 208  00DD  0580     E  	orm a,_feed_error[0]
 208  00DE  2800     R  	jmp _L26
 208  00DF              _L25:
 212  00DF              #line 212 "E:\HT66F018_F12\main_new\main.c"
 212  00DF  0FFC        	mov a,252
 212  00E0  0680     E  	andm a,_feed_error[0]
 212  00E1              _L26:
 217  00E1              #line 217 "E:\HT66F018_F12\main_new\main.c"
 217  00E1  1080     E  	sz _feed_error[0]
 217  00E2  2800     R  	jmp _LI7
 217  00E3  2800     R  	jmp _L27
 217  00E4              _LI7:
 219  00E4              #line 219 "E:\HT66F018_F12\main_new\main.c"
 219  00E4  0F01        	mov a,1
 219  00E5  0080     E  	mov _task_run_led[0],a
 220  00E6              #line 220 "E:\HT66F018_F12\main_new\main.c"
 220  00E6  0F03        	mov a,3
 220  00E7  0080     R  	mov _led_flag[0],a
 232  00E8              #line 232 "E:\HT66F018_F12\main_new\main.c"
 232  00E8  3614        	clr [20].4
 233  00E9              #line 233 "E:\HT66F018_F12\main_new\main.c"
 233  00E9  3294        	set [20].5
 233  00EA  2800     R  	jmp _L2
 233  00EB              _L27:
 224  00EB              #line 224 "E:\HT66F018_F12\main_new\main.c"
 224  00EB  1F00     E  	clr _task_run_led[0]
 225  00EC              #line 225 "E:\HT66F018_F12\main_new\main.c"
 225  00EC  1F00     R  	clr _led_flag[0]
 238  00ED              #line 238 "E:\HT66F018_F12\main_new\main.c"
 238  00ED  3214        	set [20].4
 239  00EE              #line 239 "E:\HT66F018_F12\main_new\main.c"
 239  00EE  3694        	clr [20].5
 239  00EF  2800     R  	jmp _L2
 239  00F0  2800     R  	jmp $
 239  00F1              _main endp
 239  00F1              
 239  00F1              @dummy endp
 239  00F1              
 239  00F1              #line 239 "E:\HT66F018_F12\main_new\main.c"
 239  00F1              #pragma debug scope 1 1
 239  00F1              public _INT0_ISR
 239  00F1              #pragma debug scope 3 1
 262  00F1              #line 262 "E:\HT66F018_F12\main_new\main.c"
 262  0000              @INT0_ISR_code .section at 4 'code'
 262  0000              _INT0_ISR:
 262  0000  0004        	reti
 262  0001              #line 262 "E:\HT66F018_F12\main_new\main.c"
 262  0001              #pragma debug scope 1 1
 262  0001              public _COMP_ISR
 262  0001              #pragma debug scope 4 1
 278  0001              #line 278 "E:\HT66F018_F12\main_new\main.c"
 278  0000              @COMP_ISR_code .section at 8 'code'
 278  0000              _COMP_ISR:
 278  0000  0004        	reti
 278  0001              #line 278 "E:\HT66F018_F12\main_new\main.c"
 278  0001              #pragma debug scope 1 1
 278  0001              ___mfi0 equ [17]
文件：main.c       编译器版本 HGASM 0202 页次10

 278  0001              ___pb equ [37]
 278  0001              public _Timer0_ISR
 278  0001              #pragma debug scope 5 1
 293  0001              #line 293 "E:\HT66F018_F12\main_new\main.c"
 293  0000              @Timer0_ISR_code .section at 12 'code'
 293  0000  0080     E  	mov r1,a
 293  0001  070A        	mov a,status
 293  0002  0080     E  	mov r2,a
 293  0003  2800     R  	jmp _Timer0_ISR
 293  0004              #pragma debug scope 1 1
 293  0004              @dummy12 endp
 293  0004              #pragma debug scope 6 1
 293  0000              _Timer0_ISR .section 'code'
 293  0000              _Timer0_ISR proc
 301  0000              #line 301 "E:\HT66F018_F12\main_new\main.c"
 301  0000  3691        	clr [17].5
 304  0001              #line 304 "E:\HT66F018_F12\main_new\main.c"
 304  0001  0F01        	mov a,1
 304  0002  0300     R  	add a,___t1sflag_1700[0]
 304  0003  0080     E  	mov rb,a
 304  0004  0F00        	mov a,0
 304  0005  1300     R  	adc a,___t1sflag_1700[1]
 304  0006  0080     E  	mov rc,a
 304  0007  0700     E  	mov a,rb
 304  0008  0080     R  	mov ___t1sflag_1700[0],a
 304  0009  0700     E  	mov a,rc
 304  000A  0080     R  	mov ___t1sflag_1700[1],a
 305  000B              #line 305 "E:\HT66F018_F12\main_new\main.c"
 305  000B  0700     E  	mov a,rb
 305  000C  0C73        	xor a,115
 305  000D  0500     E  	or a,rc
 305  000E  390A        	snz z
 305  000F  2800     R  	jmp _L35
 307  0010              #line 307 "E:\HT66F018_F12\main_new\main.c"
 307  0010  1F00     R  	clr ___t1sflag_1700[0]
 307  0011  1F00     R  	clr ___t1sflag_1700[1]
 308  0012              #line 308 "E:\HT66F018_F12\main_new\main.c"
 308  0012  1480     E  	inc _rtc_date[2]
 309  0013              #line 309 "E:\HT66F018_F12\main_new\main.c"
 309  0013  0F3B        	mov a,59
 309  0014  0200     E  	sub a,_rtc_date[2]
 309  0015  3C0A        	sz c
 309  0016  2800     R  	jmp _L35
 311  0017              #line 311 "E:\HT66F018_F12\main_new\main.c"
 311  0017  1480     E  	inc _rtc_date[1]
 312  0018              #line 312 "E:\HT66F018_F12\main_new\main.c"
 312  0018  1F00     E  	clr _rtc_date[2]
 313  0019              #line 313 "E:\HT66F018_F12\main_new\main.c"
 313  0019  0F01        	mov a,1
 313  001A  0080     R  	mov _time_save_flag[0],a
 314  001B              #line 314 "E:\HT66F018_F12\main_new\main.c"
 314  001B  0F3B        	mov a,59
 314  001C  0200     E  	sub a,_rtc_date[1]
 314  001D  3C0A        	sz c
 314  001E  2800     R  	jmp _L35
 317  001F              #line 317 "E:\HT66F018_F12\main_new\main.c"
 317  001F  1480     E  	inc _rtc_date[0]
 318  0020              #line 318 "E:\HT66F018_F12\main_new\main.c"
 318  0020  1F00     E  	clr _rtc_date[1]
 320  0021              #line 320 "E:\HT66F018_F12\main_new\main.c"
文件：main.c       编译器版本 HGASM 0202 页次11

 320  0021  0F17        	mov a,23
 320  0022  0200     E  	sub a,_rtc_date[0]
 320  0023  3C0A        	sz c
 320  0024  2800     R  	jmp _L35
 322  0025              #line 322 "E:\HT66F018_F12\main_new\main.c"
 322  0025  1F00     E  	clr _rtc_date[0]
 322  0026              _L35:
 330  0026              #line 330 "E:\HT66F018_F12\main_new\main.c"
 330  0026  1480     E  	inc _lcd_timeout[0]
 330  0027  3D0A        	sz z
 330  0028  1480     E  	inc _lcd_timeout[1]
 331  0029              #line 331 "E:\HT66F018_F12\main_new\main.c"
 331  0029  0FBF        	mov a,191
 331  002A  0200     E  	sub a,_lcd_timeout[0]
 331  002B  0F12        	mov a,18
 331  002C  1200     E  	sbc a,_lcd_timeout[1]
 331  002D  1185        	swap acc
 331  002E  040A        	xor a,status
 331  002F  3985        	snz acc.3
 331  0030  2800     R  	jmp _L37
 333  0031              #line 333 "E:\HT66F018_F12\main_new\main.c"
 333  0031  1F00     E  	clr _lcd_timeout[0]
 333  0032  1F00     E  	clr _lcd_timeout[1]
 333  0033              _L37:
 336  0033              #line 336 "E:\HT66F018_F12\main_new\main.c"
 336  0033  1080     E  	sz _feed_error[0]
 336  0034  2800     R  	jmp _LI8
 336  0035  2800     R  	jmp _L38
 336  0036              _LI8:
 341  0036              #line 341 "E:\HT66F018_F12\main_new\main.c"
 341  0036  0F01        	mov a,1
 341  0037  0300     R  	add a,___led_blink1_1698[0]
 341  0038  0080     E  	mov rb,a
 341  0039  0F00        	mov a,0
 341  003A  1300     R  	adc a,___led_blink1_1698[1]
 341  003B  0080     E  	mov rc,a
 341  003C  0700     E  	mov a,rb
 341  003D  0080     R  	mov ___led_blink1_1698[0],a
 341  003E  0700     E  	mov a,rc
 341  003F  0080     R  	mov ___led_blink1_1698[1],a
 342  0040              #line 342 "E:\HT66F018_F12\main_new\main.c"
 342  0040  0F31        	mov a,49
 342  0041  0200     E  	sub a,rb
 342  0042  0F00        	mov a,0
 342  0043  1200     E  	sbc a,rc
 342  0044  3C0A        	sz c
 342  0045  2800     R  	jmp _L39
 344  0046              #line 344 "E:\HT66F018_F12\main_new\main.c"
 344  0046  0740        	mov a,[64]
 344  0047  0E01        	and a,1
 344  0048  0080     E  	mov ra,a
 344  0049  0F01        	mov a,1
 344  004A  0480     E  	xorm a,ra
 344  004B  3440        	clr [64].0
 344  004C  0700     E  	mov a,ra
 344  004D  05C0        	orm a,[64]
 345  004E              #line 345 "E:\HT66F018_F12\main_new\main.c"
 345  004E  1F00     R  	clr ___led_blink1_1698[0]
 345  004F  1F00     R  	clr ___led_blink1_1698[1]
 345  0050  2800     R  	jmp _L39
文件：main.c       编译器版本 HGASM 0202 页次12

 345  0051              _L38:
 350  0051              #line 350 "E:\HT66F018_F12\main_new\main.c"
 350  0051  3440        	clr [64].0
 350  0052              _L39:
 353  0052              #line 353 "E:\HT66F018_F12\main_new\main.c"
 353  0052  1080     E  	sz _voltage_low[0]
 353  0053  2800     R  	jmp _LI9
 353  0054  2800     R  	jmp _L40
 353  0055              _LI9:
 357  0055              #line 357 "E:\HT66F018_F12\main_new\main.c"
 357  0055  0F01        	mov a,1
 357  0056  0300     R  	add a,___led_blink2_1699[0]
 357  0057  0080     E  	mov rb,a
 357  0058  0F00        	mov a,0
 357  0059  1300     R  	adc a,___led_blink2_1699[1]
 357  005A  0080     E  	mov rc,a
 357  005B  0700     E  	mov a,rb
 357  005C  0080     R  	mov ___led_blink2_1699[0],a
 357  005D  0700     E  	mov a,rc
 357  005E  0080     R  	mov ___led_blink2_1699[1],a
 358  005F              #line 358 "E:\HT66F018_F12\main_new\main.c"
 358  005F  0F31        	mov a,49
 358  0060  0200     E  	sub a,rb
 358  0061  0F00        	mov a,0
 358  0062  1200     E  	sbc a,rc
 358  0063  3C0A        	sz c
 358  0064  2800     R  	jmp _L41
 360  0065              #line 360 "E:\HT66F018_F12\main_new\main.c"
 360  0065  1F00     E  	clr ra
 360  0066  3A25        	snz [37].4
 360  0067  3000     E  	set ra.4
 360  0068  3625        	clr [37].4
 360  0069  0700     E  	mov a,ra
 360  006A  05A5        	orm a,[37]
 361  006B              #line 361 "E:\HT66F018_F12\main_new\main.c"
 361  006B  1F00     R  	clr ___led_blink2_1699[0]
 361  006C  1F00     R  	clr ___led_blink2_1699[1]
 361  006D  2800     R  	jmp _L41
 361  006E              _L40:
 366  006E              #line 366 "E:\HT66F018_F12\main_new\main.c"
 366  006E  3625        	clr [37].4
 366  006F              _L41:
 380  006F              #line 380 "E:\HT66F018_F12\main_new\main.c"
 380  006F  1080     R  	sz _record_flag[0]
 380  0070  2800     R  	jmp _LI10
 380  0071  2800     R  	jmp _L42
 380  0072              _LI10:
 382  0072              #line 382 "E:\HT66F018_F12\main_new\main.c"
 382  0072  0F01        	mov a,1
 382  0073  0300     R  	add a,___record_time_1696[0]
 382  0074  0080     E  	mov rb,a
 382  0075  0F00        	mov a,0
 382  0076  1300     R  	adc a,___record_time_1696[1]
 382  0077  0080     E  	mov rc,a
 383  0078              #line 383 "E:\HT66F018_F12\main_new\main.c"
 383  0078  0FE7        	mov a,231
 383  0079  0200     E  	sub a,rb
 383  007A  0F03        	mov a,3
 383  007B  1200     E  	sbc a,rc
 383  007C  380A        	snz c
文件：main.c       编译器版本 HGASM 0202 页次13

 383  007D  2800     R  	jmp _L43
 382  007E              #line 382 "E:\HT66F018_F12\main_new\main.c"
 382  007E  0700     E  	mov a,rb
 382  007F  0080     R  	mov ___record_time_1696[0],a
 382  0080  0700     E  	mov a,rc
 382  0081  0080     R  	mov ___record_time_1696[1],a
 382  0082  2800     R  	jmp _L44
 382  0083              _L43:
 385  0083              #line 385 "E:\HT66F018_F12\main_new\main.c"
 385  0083  1F00     R  	clr ___record_time_1696[0]
 385  0084  1F00     R  	clr ___record_time_1696[1]
 386  0085              #line 386 "E:\HT66F018_F12\main_new\main.c"
 386  0085  0F02        	mov a,2
 386  0086  0080     R  	mov _record_flag[0],a
 386  0087  2800     R  	jmp _L44
 386  0088              _L42:
 392  0088              #line 392 "E:\HT66F018_F12\main_new\main.c"
 392  0088  1F00     R  	clr ___record_time_1696[0]
 392  0089  1F00     R  	clr ___record_time_1696[1]
 392  008A              _L44:
 396  008A              #line 396 "E:\HT66F018_F12\main_new\main.c"
 396  008A  1080     R  	sz _feed_detect_again[0]
 396  008B  2800     R  	jmp _LI11
 396  008C  2800     R  	jmp _L46
 396  008D              _LI11:
 398  008D              #line 398 "E:\HT66F018_F12\main_new\main.c"
 398  008D  0F01        	mov a,1
 398  008E  0300     R  	add a,___task_feed_again_1697[0]
 398  008F  0080     E  	mov rb,a
 398  0090  0F00        	mov a,0
 398  0091  1300     R  	adc a,___task_feed_again_1697[1]
 398  0092  0080     E  	mov rc,a
 398  0093  0700     E  	mov a,rb
 398  0094  0080     R  	mov ___task_feed_again_1697[0],a
 398  0095  0700     E  	mov a,rc
 398  0096  0080     R  	mov ___task_feed_again_1697[1],a
 400  0097              #line 400 "E:\HT66F018_F12\main_new\main.c"
 400  0097  0F30        	mov a,48
 400  0098  0200     E  	sub a,rb
 400  0099  0F75        	mov a,117
 400  009A  1200     E  	sbc a,rc
 400  009B  3C0A        	sz c
 400  009C  2800     R  	jmp _L46
 402  009D              #line 402 "E:\HT66F018_F12\main_new\main.c"
 402  009D  1F00     R  	clr _feed_detect_again[0]
 403  009E              #line 403 "E:\HT66F018_F12\main_new\main.c"
 403  009E  1F00     R  	clr ___task_feed_again_1697[0]
 403  009F  1F00     R  	clr ___task_feed_again_1697[1]
 403  00A0              _L46:
 407  00A0              #line 407 "E:\HT66F018_F12\main_new\main.c"
 407  00A0  300E        	set [14].0
 407  00A1  0700     E  	mov a,r2
 407  00A2  008A        	mov status,a
 407  00A3  0700     E  	mov a,r1
 407  00A4  0004        	reti
 407  00A5              _Timer0_ISR endp
 407  00A5              
 407  00A5              #line 407 "E:\HT66F018_F12\main_new\main.c"
 407  00A5              #pragma debug scope 1 1
 407  00A5              ___mfi1 equ [18]
文件：main.c       编译器版本 HGASM 0202 页次14

 407  00A5              public _Timer1_2_ISR
 407  00A5              #pragma debug scope 7 1
 418  00A5              #line 418 "E:\HT66F018_F12\main_new\main.c"
 418  0000              @Timer1_2_ISR_code .section at 16 'code'
 418  0000  0080     E  	mov r1,a
 418  0001  070A        	mov a,status
 418  0002  0080     E  	mov r2,a
 418  0003  2800     R  	jmp _Timer1_2_ISR
 418  0004              #pragma debug scope 1 1
 418  0004              @dummy16 endp
 418  0004              #pragma debug scope 8 1
 418  0000              _Timer1_2_ISR .section 'code'
 418  0000              _Timer1_2_ISR proc
 421  0000              #line 421 "E:\HT66F018_F12\main_new\main.c"
 421  0000  3692        	clr [18].5
 423  0001              #line 423 "E:\HT66F018_F12\main_new\main.c"
 423  0001  1080     E  	sz _user_delay_flag[0]
 423  0002  2800     R  	jmp _LI12
 423  0003  2800     R  	jmp _L50
 423  0004              _LI12:
 425  0004              #line 425 "E:\HT66F018_F12\main_new\main.c"
 425  0004  1480     E  	inc _user_delay_time[0]
 425  0005  3D0A        	sz z
 425  0006  1480     E  	inc _user_delay_time[1]
 426  0007              #line 426 "E:\HT66F018_F12\main_new\main.c"
 426  0007  0FFD        	mov a,253
 426  0008  0200     E  	sub a,_user_delay_time[0]
 426  0009  0FFF        	mov a,255
 426  000A  1200     E  	sbc a,_user_delay_time[1]
 426  000B  3C0A        	sz c
 426  000C  2800     R  	jmp _L50
 427  000D              #line 427 "E:\HT66F018_F12\main_new\main.c"
 427  000D  0FFE        	mov a,-2
 427  000E  0080     E  	mov _user_delay_time[0],a
 427  000F  1F80     E  	set _user_delay_time[1]
 427  0010              _L50:
 430  0010              #line 430 "E:\HT66F018_F12\main_new\main.c"
 430  0010  300E        	set [14].0
 430  0011  0700     E  	mov a,r2
 430  0012  008A        	mov status,a
 430  0013  0700     E  	mov a,r1
 430  0014  0004        	reti
 430  0015              _Timer1_2_ISR endp
 430  0015              
 430  0015              #line 430 "E:\HT66F018_F12\main_new\main.c"
 430  0015              #pragma debug scope 1 1
 430  0015              public _LVD_EEPROM_ISR
 430  0015              #pragma debug scope 9 1
 444  0015              #line 444 "E:\HT66F018_F12\main_new\main.c"
 444  0000              @LVD_EEPROM_ISR_code .section at 20 'code'
 444  0000              _LVD_EEPROM_ISR:
 444  0000  0004        	reti
 444  0001              #line 444 "E:\HT66F018_F12\main_new\main.c"
 444  0001              #pragma debug scope 1 1
 444  0001              public _ADC_ISR
 444  0001              #pragma debug scope 10 1
 459  0001              #line 459 "E:\HT66F018_F12\main_new\main.c"
 459  0000              @ADC_ISR_code .section at 24 'code'
 459  0000              _ADC_ISR:
 459  0000  0004        	reti
文件：main.c       编译器版本 HGASM 0202 页次15

 459  0001              #line 459 "E:\HT66F018_F12\main_new\main.c"
 459  0001              #pragma debug scope 1 1
 459  0001              public _TB0_ISR
 459  0001              #pragma debug scope 11 1
 475  0001              #line 475 "E:\HT66F018_F12\main_new\main.c"
 475  0000              @TB0_ISR_code .section at 28 'code'
 475  0000              _TB0_ISR:
 475  0000  0004        	reti
 475  0001              #line 475 "E:\HT66F018_F12\main_new\main.c"
 475  0001              #pragma debug scope 1 1
 475  0001              public _TB1_ISR
 475  0001              #pragma debug scope 12 1
 494  0001              #line 494 "E:\HT66F018_F12\main_new\main.c"
 494  0000              @TB1_ISR_code .section at 32 'code'
 494  0000              _TB1_ISR:
 494  0000  0004        	reti
 494  0001              #line 494 "E:\HT66F018_F12\main_new\main.c"
 494  0001              #pragma debug scope 1 1
 494  0001              public _INT1_ISR
 494  0001              #pragma debug scope 13 1
 510  0001              #line 510 "E:\HT66F018_F12\main_new\main.c"
 510  0000              @INT1_ISR_code .section at 36 'code'
 510  0000              _INT1_ISR:
 510  0000  0004        	reti
 510  0001              #line 510 "E:\HT66F018_F12\main_new\main.c"
 510  0001              #pragma debug scope 1 1
 510  0000              @HCCINIT	.section 'data'
 296  0000              #line 296 "E:\HT66F018_F12\main_new\main.c"
 296  0000              @HCCINIT .section 'data'
 296  0000              ___task_feed_again_1697 label byte
 296  0000              #pragma debug variable 10 6 ___task_feed_again_1697 "task_feed_again"
 296  0000              	db 0
 296  0000              @ROMDATA_BASE .section inpage 'code'
 296  0000              	db 0
 296  0001              @HCCINIT .section 'data'
 296  0001              	db 0
 296  0001              @ROMDATA_BASE .section inpage 'code'
 296  0001              	db 0
 296  0002              @HCCINIT .section 'data'
 295  0002              #line 295 "E:\HT66F018_F12\main_new\main.c"
 295  0002              @HCCINIT .section 'data'
 295  0002              ___record_time_1696 label byte
 295  0002              #pragma debug variable 10 6 ___record_time_1696 "record_time"
 295  0002              	db 0
 295  0001              @ROMDATA_BASE .section inpage 'code'
 295  0001              	db 0
 295  0003              @HCCINIT .section 'data'
 295  0003              	db 0
 295  0002              @ROMDATA_BASE .section inpage 'code'
 295  0002              	db 0
 295  0004              @HCCINIT .section 'data'
 298  0004              #line 298 "E:\HT66F018_F12\main_new\main.c"
 298  0004              @HCCINIT .section 'data'
 298  0004              ___led_blink2_1699 label byte
 298  0004              #pragma debug variable 10 6 ___led_blink2_1699 "led_blink2"
 298  0004              	db 0
 298  0002              @ROMDATA_BASE .section inpage 'code'
 298  0002              	db 0
 298  0005              @HCCINIT .section 'data'
 298  0005              	db 0
文件：main.c       编译器版本 HGASM 0202 页次16

 298  0003              @ROMDATA_BASE .section inpage 'code'
 298  0003              	db 0
 298  0006              @HCCINIT .section 'data'
 297  0006              #line 297 "E:\HT66F018_F12\main_new\main.c"
 297  0006              @HCCINIT .section 'data'
 297  0006              ___led_blink1_1698 label byte
 297  0006              #pragma debug variable 10 6 ___led_blink1_1698 "led_blink1"
 297  0006              	db 0
 297  0003              @ROMDATA_BASE .section inpage 'code'
 297  0003              	db 0
 297  0007              @HCCINIT .section 'data'
 297  0007              	db 0
 297  0004              @ROMDATA_BASE .section inpage 'code'
 297  0004              	db 0
 297  0008              @HCCINIT .section 'data'
 299  0008              #line 299 "E:\HT66F018_F12\main_new\main.c"
 299  0008              @HCCINIT .section 'data'
 299  0008              ___t1sflag_1700 label byte
 299  0008              #pragma debug variable 10 6 ___t1sflag_1700 "t1sflag"
 299  0008              	db 0
 299  0004              @ROMDATA_BASE .section inpage 'code'
 299  0004              	db 0
 299  0009              @HCCINIT .section 'data'
 299  0009              	db 0
 299  0005              @ROMDATA_BASE .section inpage 'code'
 299  0005              	db 0
 299  000A              @HCCINIT .section 'data'
  21  000A              #line 21 "E:\HT66F018_F12\main_new\main.c"
  21  000A              public _feed
  21  0000              @HCCINIT0 .section 'data'
  21  0000  0004[       _feed	db 4 dup(0)
            00
            ]
  21  0004              #pragma debug struct_end
  21  0004              #pragma debug struct_end
  21  0004              #pragma debug variable 42 1 _feed "feed"
  21  0004              
  21  000A              @HCCINIT .section 'data'
  21  000A              public _meal_flag
  19  000A              #line 19 "E:\HT66F018_F12\main_new\main.c"
  19  000A              @HCCINIT .section 'data'
  19  000A              _meal_flag label byte
  19  000A              #pragma debug variable 7 1 _meal_flag "meal_flag"
  19  000A              	db 0
  19  0005              @ROMDATA_BASE .section inpage 'code'
  19  0005              	db 0
  19  000B              @HCCINIT .section 'data'
  19  000B              public _time_save_flag
  18  000B              #line 18 "E:\HT66F018_F12\main_new\main.c"
  18  000B              @HCCINIT .section 'data'
  18  000B              _time_save_flag label byte
  18  000B              #pragma debug variable 8 1 _time_save_flag "time_save_flag"
  18  000B              	db 0
  18  0006              @ROMDATA_BASE .section inpage 'code'
  18  0006              	db 0
  18  000C              @HCCINIT .section 'data'
  18  000C              public _feed_detect_again
  17  000C              #line 17 "E:\HT66F018_F12\main_new\main.c"
  17  000C              @HCCINIT .section 'data'
  17  000C              _feed_detect_again label byte
文件：main.c       编译器版本 HGASM 0202 页次17

  17  000C              #pragma debug variable 8 1 _feed_detect_again "feed_detect_again"
  17  000C              	db 0
  17  0006              @ROMDATA_BASE .section inpage 'code'
  17  0006              	db 0
  17  000D              @HCCINIT .section 'data'
  17  000D              public _record_flag
  16  000D              #line 16 "E:\HT66F018_F12\main_new\main.c"
  16  000D              @HCCINIT .section 'data'
  16  000D              _record_flag label byte
  16  000D              #pragma debug variable 8 1 _record_flag "record_flag"
  16  000D              	db 0
  16  0007              @ROMDATA_BASE .section inpage 'code'
  16  0007              	db 0
  16  000E              @HCCINIT .section 'data'
  16  000E              public _led_flag
  15  000E              #line 15 "E:\HT66F018_F12\main_new\main.c"
  15  000E              @HCCINIT .section 'data'
  15  000E              _led_flag label byte
  15  000E              #pragma debug variable 8 1 _led_flag "led_flag"
  15  000E              	db 0
  15  0007              @ROMDATA_BASE .section inpage 'code'
  15  0007              	db 0
  15  000F              @HCCINIT .section 'data'
  15  000F              #pragma debug struct_end
  15  000F              #pragma debug struct_end
  15  000F              #pragma debug union_end
  15  000F              #pragma debug union_end
  15  000F              #pragma debug variable 44 1 ___intc0 "__intc0" 1
  15  000F              #pragma debug struct_end
  15  000F              #pragma debug struct_end
  15  000F              #pragma debug union_end
  15  000F              #pragma debug union_end
  15  000F              #pragma debug variable 46 1 ___mfi0 "__mfi0" 1
  15  000F              #pragma debug struct_end
  15  000F              #pragma debug struct_end
  15  000F              #pragma debug union_end
  15  000F              #pragma debug union_end
  15  000F              #pragma debug variable 48 1 ___mfi1 "__mfi1" 1
  15  000F              #pragma debug struct_end
  15  000F              #pragma debug struct_end
  15  000F              #pragma debug union_end
  15  000F              #pragma debug union_end
  15  000F              #pragma debug variable 50 1 ___pa "__pa" 1
  15  000F              #pragma debug struct_end
  15  000F              #pragma debug struct_end
  15  000F              #pragma debug union_end
  15  000F              #pragma debug union_end
  15  000F              #pragma debug variable 52 1 ___pac "__pac" 1
  15  000F              #pragma debug struct_end
  15  000F              #pragma debug struct_end
  15  000F              #pragma debug union_end
  15  000F              #pragma debug union_end
  15  000F              #pragma debug variable 54 1 ___papu "__papu" 1
  15  000F              #pragma debug struct_end
  15  000F              #pragma debug struct_end
  15  000F              #pragma debug union_end
  15  000F              #pragma debug union_end
  15  000F              #pragma debug variable 56 1 ___pb "__pb" 1
  15  000F              #pragma debug struct_end
  15  000F              #pragma debug struct_end
文件：main.c       编译器版本 HGASM 0202 页次18

  15  000F              #pragma debug union_end
  15  000F              #pragma debug union_end
  15  000F              #pragma debug variable 58 1 ___pc "__pc" 1
  15  000F              
  15  000F              ; output external variables
  15  000F              extern _user_delay_time:byte
  15  000F              extern _user_delay_flag:byte
  15  000F              extern _voltage_low:byte
  15  000F              extern _task_run_led:byte
  15  000F              extern _feed_error:byte
  15  000F              extern _lcd_timeout:byte
  15  000F              extern _feed_going:byte
  15  000F              extern _rtc_date:byte
  15  000F              extern r1:byte
  15  000F              extern r2:byte
  25  000F              #line 25 "E:\HT66F018_F12\main_new\main.c"
  25  0000              @code .section at 0 'code'
  25  0000  2800     R  	jmp _main_startup1
  25  0001              
  25  0001              extern _Init_clock:near
  25  0001              extern _GPIOA_INIT_2:byte
  25  0001              extern _GPIOA_INIT:near
  25  0001              extern _GPIOB_INIT_2:byte
  25  0001              extern _GPIOB_INIT:near
  25  0001              extern _GPIOC_INIT_2:byte
  25  0001              extern _GPIOC_INIT:near
  25  0001              extern _init_TM1628:near
  25  0001              extern _rtc_init:near
  25  0001              extern _EEPROM_Init:near
  25  0001              extern _EEPROM_Read_Byte:near
  25  0001              extern _ADC_Init:near
  25  0001              extern _use_delay_us_2:byte
  25  0001              extern _use_delay_us:near
  25  0001              extern _key_scan:near
  25  0001              extern _set_voice:near
  25  0001              extern _set_time:near
  25  0001              extern _set_meal:near
  25  0001              extern _UART_SoftWareSendByte:near
  25  0001              extern _get_meal:near
  25  0001              extern _rtc_lcd:near
  25  0001              extern _time_save:near
  25  0001              extern _feed_scan_2:byte
  25  0001              extern _feed_scan:near
  25  0001              extern _feed_run_2:byte
  25  0001              extern _feed_run:near
  25  0001              extern _battery_detect:near
  25  0001              
  25  0001              ; 
  25  0001              ; Generated by holtek-gcc v3.19, Fri Jan 21 10:13:26 2022
  25  0001              ; Rebuild 718
  25  0001              ; end of file


        0 Errors, 0