文件：define.h     编译器版本 HGASM 0202 页次1


   1  0000              ; Generated by holtek-gcc v3.19, Fri Jan 28 13:55:31 2022
   2  0000              ; 
   3  0000              ; Configuration:
   4  0000              ;       without long instruction
   5  0000              ;       Single ROM, Multi-RAM
   6  0000              ;       bits_per_rom_unit:16
   7  0000              ;       with mp1
   8  0000              ;       with tbhp, address(0x9)
   9  0000              ;          Use tabrd-const
  10  0000              ;       
  11  0000              ;       
  12  0000              ;       
  13  0000              ; use 'tabrdc' instead of 'tabrd'
  14  0000              ;       
  15  0000              
  16  0000              #pragma translator "holtek-gcc 4.6.4" "3.19" "build 20130711"
  17  0000              ; Rebuild 718
  18  0000              
  19  0000              ir equ [2]
  20  0000              mp equ [3]
  21  0000              sbp equ [1]
  22  0000              acc equ [5]
  23  0000              bp equ [4]
  24  0000              tblp equ [7]
  25  0000              tbhp equ [9]
  26  0000              status equ [10]
  27  0000              c equ [10].0
  28  0000              ac equ [10].1
  29  0000              z equ [10].2
  30  0000              ov equ [10].3
  31  0000              intc equ [11]
  32  0000              
  33  0000              extern ra:byte
  34  0000              extern rb:byte
  35  0000              extern rc:byte
  36  0000              extern rd:byte
  37  0000              extern re:byte
  38  0000              extern rf:byte
  39  0000              extern rg:byte
  40  0000              extern rh:byte
  41  0000              extern _Crom2Prom:near
  42  0000              extern _Crom2PromNext:near
  43  0000              
  44  0000              RAMBANK 0 @HCCINIT, @HCCINIT0
  45  0000              
  46  0000              RAMBANK 0 @BITDATASEC, @BITDATASEC1
  47  0000              @HCCINIT	.section 'data'
  48  0000              @HCCINIT0	.section 'data'
  49  0000              @BITDATASEC	 .section 'data'
  50  0000              @BITDATASEC1	 .section 'data'
  51  0000              
  52  0000              #pragma debug scope 1 1
  53  0000              	extern __DELAY3:near
  54  0000              	extern __DELAYX3:near
  55  0000              	extern __DELAYX6:near
  56  0000              	extern __DELAYY5:near
  57  0000              	extern __DELAYY3:near
  58  0000              	extern _builtin_holtek_delay_2:byte
  59  0000              public _rtc_lcd
文件：LCD.ASM      编译器版本 HGASM 0202 页次2

  60  0000              #pragma debug scope 2 1

  20  0000              #line 20 "e:\ht66f018_f12\f12-test-20220107\LCD.c"
  20  0000              _rtc_lcd .section 'code'
  20  0000              _rtc_lcd proc
  21  0000              #line 21 "e:\ht66f018_f12\f12-test-20220107\LCD.c"
  21  0000  1F00     E  	clr _builtin_holtek_udivmodqi4_2[3]
  21  0001  0700     E  	mov a,_rtc_date[0]
  21  0002  0080     E  	mov _builtin_holtek_udivmodqi4_2[0],a
  21  0003  0F0A        	mov a,10
  21  0004  0080     E  	mov _builtin_holtek_udivmodqi4_2[1],a
  21  0005  2000     E  	call _builtin_holtek_udivmodqi4
  21  0006  0700     E  	mov a,_builtin_holtek_udivmodqi4_2[0]
  21  0007  0080     E  	mov ra,a
  21  0008  0F00     R  	mov a,low offset _Num_tab_7
  21  0009  0300     E  	add a,ra
  21  000A  0083        	mov mp,a
  21  000B  0F00     R  	mov a,high offset _Num_tab_7
  21  000C  1F01        	clr sbp
  21  000D  1381        	adcm a,sbp
  21  000E  2000     E  	call _Crom2Prom
  21  000F  0080     E  	mov _Write_DATA_2[0],a
  21  0010  0FC0        	mov a,192
  21  0011  2000     E  	call _Write_DATA
  22  0012              #line 22 "e:\ht66f018_f12\f12-test-20220107\LCD.c"
  22  0012  1F00     E  	clr _builtin_holtek_udivmodqi4_2[3]
  22  0013  0700     E  	mov a,_rtc_date[0]
  22  0014  0080     E  	mov _builtin_holtek_udivmodqi4_2[0],a
  22  0015  0F0A        	mov a,10
  22  0016  0080     E  	mov _builtin_holtek_udivmodqi4_2[1],a
  22  0017  2000     E  	call _builtin_holtek_udivmodqi4
  22  0018  0700     E  	mov a,_builtin_holtek_udivmodqi4_2[2]
  22  0019  0080     E  	mov ra,a
  22  001A  0F00     R  	mov a,low offset _Num_tab_7
  22  001B  0300     E  	add a,ra
  22  001C  0083        	mov mp,a
  22  001D  0F00     R  	mov a,high offset _Num_tab_7
  22  001E  1F01        	clr sbp
  22  001F  1381        	adcm a,sbp
  22  0020  2000     E  	call _Crom2Prom
  22  0021  0080     E  	mov _Write_DATA_2[0],a
  22  0022  0FC2        	mov a,194
  22  0023  2000     E  	call _Write_DATA
  23  0024              #line 23 "e:\ht66f018_f12\f12-test-20220107\LCD.c"
  23  0024  1F00     E  	clr _builtin_holtek_udivmodqi4_2[3]
  23  0025  0700     E  	mov a,_rtc_date[1]
  23  0026  0080     E  	mov _builtin_holtek_udivmodqi4_2[0],a
  23  0027  0F0A        	mov a,10
  23  0028  0080     E  	mov _builtin_holtek_udivmodqi4_2[1],a
  23  0029  2000     E  	call _builtin_holtek_udivmodqi4
  23  002A  0700     E  	mov a,_builtin_holtek_udivmodqi4_2[0]
  23  002B  0080     E  	mov ra,a
  23  002C  0F00     R  	mov a,low offset _Num_tab_7
  23  002D  0300     E  	add a,ra
  23  002E  0083        	mov mp,a
  23  002F  0F00     R  	mov a,high offset _Num_tab_7
  23  0030  1F01        	clr sbp
  23  0031  1381        	adcm a,sbp
  23  0032  2000     E  	call _Crom2Prom
  23  0033  0080     E  	mov _Write_DATA_2[0],a
文件：LCD.c        编译器版本 HGASM 0202 页次3

  23  0034  0FC4        	mov a,196
  23  0035  2000     E  	call _Write_DATA
  24  0036              #line 24 "e:\ht66f018_f12\f12-test-20220107\LCD.c"
  24  0036  1F00     E  	clr _builtin_holtek_udivmodqi4_2[3]
  24  0037  0700     E  	mov a,_rtc_date[1]
  24  0038  0080     E  	mov _builtin_holtek_udivmodqi4_2[0],a
  24  0039  0F0A        	mov a,10
  24  003A  0080     E  	mov _builtin_holtek_udivmodqi4_2[1],a
  24  003B  2000     E  	call _builtin_holtek_udivmodqi4
  24  003C  0700     E  	mov a,_builtin_holtek_udivmodqi4_2[2]
  24  003D  0080     E  	mov ra,a
  24  003E  0F00     R  	mov a,low offset _Num_tab_7
  24  003F  0300     E  	add a,ra
  24  0040  0083        	mov mp,a
  24  0041  0F00     R  	mov a,high offset _Num_tab_7
  24  0042  1F01        	clr sbp
  24  0043  1381        	adcm a,sbp
  24  0044  2000     E  	call _Crom2Prom
  24  0045  0080     E  	mov _Write_DATA_2[0],a
  24  0046  0FC6        	mov a,198
  24  0047  2000     E  	call _Write_DATA
  25  0048              #line 25 "e:\ht66f018_f12\f12-test-20220107\LCD.c"
  25  0048  1F00     E  	clr _Write_DATA_2[0]
  25  0049  0FC8        	mov a,200
  25  004A  2000     E  	call _Write_DATA
  26  004B              #line 26 "e:\ht66f018_f12\f12-test-20220107\LCD.c"
  26  004B  1F00     E  	clr _Write_DATA_2[0]
  26  004C  0FCA        	mov a,202
  26  004D  2000     E  	call _Write_DATA
  27  004E              #line 27 "e:\ht66f018_f12\f12-test-20220107\LCD.c"
  27  004E  1F00     E  	clr _Write_DATA_2[0]
  27  004F  0FCC        	mov a,204
  27  0050  2000     E  	call _Write_DATA
  27  0051  0003        	ret
  27  0052              _rtc_lcd endp
  27  0052              #line 27 "e:\ht66f018_f12\f12-test-20220107\LCD.c"
  27  0052              #pragma debug scope 1 1
  27  0000              @crom	.section 'crom'

 318  0000              #line 318 "e:\ht66f018_f12\f12-test-20220107\define.h"
 318  0000              @crom	.section	'crom'
 318  0000              _Num_tab_7:
 318  0000              #pragma debug array 42 8 10 1
 318  0000              #pragma debug array 42 8 10 1
 318  0000              #pragma debug variable 42 1 _Num_tab_7 "Num_tab_7"
 318  0000              	db 63
 318  0001              	db 6
 318  0001              	db 91
 318  0002              	db 79
 318  0002              	db 102
 318  0003              	db 109
 318  0003              	db 125
 318  0004              	db 7
 318  0004              	db 127
 318  0005              	db 111
 318  0005              
 318  0005              ; output external variables
 318  0005              extern _rtc_date:byte
 318  0005              extern _builtin_holtek_udivmodqi4_2:byte
 318  0005              extern _builtin_holtek_udivmodqi4:near
文件：define.h     编译器版本 HGASM 0202 页次4

 318  0005              extern _Write_DATA_2:byte
 318  0005              extern _Write_DATA:near
 318  0005              
 318  0005              ; 
 318  0005              ; Generated by holtek-gcc v3.19, Fri Jan 28 13:55:31 2022
 318  0005              ; Rebuild 718
 318  0005              ; end of file


        0 Errors, 0