文件：KeyScan.c    编译器版本 HGASM 0202 页次1


   1  0000              ; Generated by holtek-gcc v3.19, Sat Jan 29 10:13:45 2022
   2  0000              ; 
   3  0000              ; Configuration:
   4  0000              ;       without long instruction
   5  0000              ;       Single ROM, Multi-RAM
   6  0000              ;       bits_per_rom_unit:16
   7  0000              ;       with mp1
   8  0000              ;       with tbhp, address(0x9)
   9  0000              ;          Use tabrd-const
  10  0000              ;       
  11  0000              ;       
  12  0000              ;       
  13  0000              ; use 'tabrdc' instead of 'tabrd'
  14  0000              ;       
  15  0000              
  16  0000              #pragma translator "holtek-gcc 4.6.4" "3.19" "build 20130711"
  17  0000              ; Rebuild 718
  18  0000              
  19  0000              ir equ [2]
  20  0000              mp equ [3]
  21  0000              sbp equ [1]
  22  0000              acc equ [5]
  23  0000              bp equ [4]
  24  0000              tblp equ [7]
  25  0000              tbhp equ [9]
  26  0000              status equ [10]
  27  0000              c equ [10].0
  28  0000              ac equ [10].1
  29  0000              z equ [10].2
  30  0000              ov equ [10].3
  31  0000              intc equ [11]
  32  0000              
  33  0000              extern ra:byte
  34  0000              extern rb:byte
  35  0000              extern rc:byte
  36  0000              extern rd:byte
  37  0000              extern re:byte
  38  0000              extern rf:byte
  39  0000              extern rg:byte
  40  0000              extern rh:byte
  41  0000              extern _Crom2Prom:near
  42  0000              extern _Crom2PromNext:near
  43  0000              
  44  0000              RAMBANK 0 @HCCINIT, @HCCINIT0
  45  0000              
  46  0000              RAMBANK 0 @BITDATASEC, @BITDATASEC1
  47  0000              @HCCINIT	.section 'data'
  48  0000              @HCCINIT0	.section 'data'
  49  0000              @BITDATASEC	 .section 'data'
  50  0000              @BITDATASEC1	 .section 'data'
  51  0000              
  52  0000              #pragma debug scope 1 1
  53  0000              	extern __DELAY3:near
  54  0000              	extern __DELAYX3:near
  55  0000              	extern __DELAYX6:near
  56  0000              	extern __DELAYY5:near
  57  0000              	extern __DELAYY3:near
  58  0000              	extern _builtin_holtek_delay_2:byte
  59  0000              ___adcr0 equ [34]
文件：KeyScan.ASM  编译器版本 HGASM 0202 页次2

  60  0000              public _key_scan
  61  0000              #pragma debug scope 2 1

  10  0000              #line 10 "E:\2HT66F018_F12\F12-record-20220116\KeyScan.c"
  10  0000              _key_scan .section 'code'
  10  0000              _key_scan proc
  15  0000              #line 15 "E:\2HT66F018_F12\F12-record-20220116\KeyScan.c"
  15  0000  36A2        	clr [34].5
  16  0001              #line 16 "E:\2HT66F018_F12\F12-record-20220116\KeyScan.c"
  16  0001  0F00        	mov a,0
  16  0002  2000     E  	call _ADC_GetChannelValue
  16  0003  0700     E  	mov a,rb
  16  0004  0080     E  	mov rc,a
  16  0005  0700     E  	mov a,ra
  16  0006  0080     E  	mov rb,a
  18  0007              #line 18 "E:\2HT66F018_F12\F12-record-20220116\KeyScan.c"
  18  0007  0F9F        	mov a,159
  18  0008  0200     E  	sub a,rb
  18  0009  0F0F        	mov a,15
  18  000A  1200     E  	sbc a,rc
  18  000B  380A        	snz c
  18  000C  2800     R  	jmp _L4
  26  000D              #line 26 "E:\2HT66F018_F12\F12-record-20220116\KeyScan.c"
  26  000D  0F73        	mov a,115
  26  000E  0200     E  	sub a,rb
  26  000F  0F0E        	mov a,14
  26  0010  1200     E  	sbc a,rc
  26  0011  380A        	snz c
  26  0012  2800     R  	jmp _L5
  32  0013              #line 32 "E:\2HT66F018_F12\F12-record-20220116\KeyScan.c"
  32  0013  0F0F        	mov a,15
  32  0014  0200     E  	sub a,rb
  32  0015  0F0E        	mov a,14
  32  0016  1200     E  	sbc a,rc
  32  0017  380A        	snz c
  32  0018  2800     R  	jmp _L6
  38  0019              #line 38 "E:\2HT66F018_F12\F12-record-20220116\KeyScan.c"
  38  0019  0FAB        	mov a,171
  38  001A  0200     E  	sub a,rb
  38  001B  0F0D        	mov a,13
  38  001C  1200     E  	sbc a,rc
  38  001D  380A        	snz c
  38  001E  2800     R  	jmp _L7
  44  001F              #line 44 "E:\2HT66F018_F12\F12-record-20220116\KeyScan.c"
  44  001F  0F79        	mov a,121
  44  0020  0200     E  	sub a,rb
  44  0021  0F0D        	mov a,13
  44  0022  1200     E  	sbc a,rc
  44  0023  380A        	snz c
  44  0024  2800     R  	jmp _L8
  50  0025              #line 50 "E:\2HT66F018_F12\F12-record-20220116\KeyScan.c"
  50  0025  0FE3        	mov a,227
  50  0026  0200     E  	sub a,rb
  50  0027  0F0C        	mov a,12
  50  0028  1200     E  	sbc a,rc
  50  0029  380A        	snz c
  50  002A  2800     R  	jmp _L9
  56  002B              #line 56 "E:\2HT66F018_F12\F12-record-20220116\KeyScan.c"
  56  002B  0FB7        	mov a,183
  56  002C  0200     E  	sub a,rb
文件：KeyScan.c    编译器版本 HGASM 0202 页次3

  56  002D  0F0B        	mov a,11
  56  002E  1200     E  	sbc a,rc
  56  002F  380A        	snz c
  56  0030  2800     R  	jmp _L10
  62  0031              #line 62 "E:\2HT66F018_F12\F12-record-20220116\KeyScan.c"
  62  0031  0F01        	mov a,1
  62  0032  0080     E  	mov ra,a
  62  0033  0F27        	mov a,39
  62  0034  0200     E  	sub a,rb
  62  0035  0F0A        	mov a,10
  62  0036  1200     E  	sbc a,rc
  62  0037  380A        	snz c
  62  0038  2800     R  	jmp _L2
  62  0039              _L4:
  22  0039              #line 22 "E:\2HT66F018_F12\F12-record-20220116\KeyScan.c"
  22  0039  1F00     E  	clr ra
  22  003A  2800     R  	jmp _L2
  22  003B              _L5:
  30  003B              #line 30 "E:\2HT66F018_F12\F12-record-20220116\KeyScan.c"
  30  003B  0F07        	mov a,7
  30  003C  0080     E  	mov ra,a
  30  003D  2800     R  	jmp _L2
  30  003E              _L6:
  36  003E              #line 36 "E:\2HT66F018_F12\F12-record-20220116\KeyScan.c"
  36  003E  0F06        	mov a,6
  36  003F  0080     E  	mov ra,a
  36  0040  2800     R  	jmp _L2
  36  0041              _L7:
  42  0041              #line 42 "E:\2HT66F018_F12\F12-record-20220116\KeyScan.c"
  42  0041  0F05        	mov a,5
  42  0042  0080     E  	mov ra,a
  42  0043  2800     R  	jmp _L2
  42  0044              _L8:
  48  0044              #line 48 "E:\2HT66F018_F12\F12-record-20220116\KeyScan.c"
  48  0044  0F04        	mov a,4
  48  0045  0080     E  	mov ra,a
  48  0046  2800     R  	jmp _L2
  48  0047              _L9:
  54  0047              #line 54 "E:\2HT66F018_F12\F12-record-20220116\KeyScan.c"
  54  0047  0F03        	mov a,3
  54  0048  0080     E  	mov ra,a
  54  0049  2800     R  	jmp _L2
  54  004A              _L10:
  60  004A              #line 60 "E:\2HT66F018_F12\F12-record-20220116\KeyScan.c"
  60  004A  0F02        	mov a,2
  60  004B  0080     E  	mov ra,a
  60  004C              _L2:
  71  004C              #line 71 "E:\2HT66F018_F12\F12-record-20220116\KeyScan.c"
  71  004C  0700     E  	mov a,ra
  71  004D  0003        	ret
  71  004E              _key_scan endp
  71  004E              #line 71 "E:\2HT66F018_F12\F12-record-20220116\KeyScan.c"
  71  004E              #pragma debug scope 1 1
  71  004E              public _get_key_state
  71  004E              #pragma debug scope 3 1
  78  004E              #line 78 "E:\2HT66F018_F12\F12-record-20220116\KeyScan.c"
  78  0000              _get_key_state .section 'code'
  78  0000              _get_key_state proc
  81  0000              #line 81 "E:\2HT66F018_F12\F12-record-20220116\KeyScan.c"
  81  0000  36A2        	clr [34].5
文件：KeyScan.c    编译器版本 HGASM 0202 页次4

  82  0001              #line 82 "E:\2HT66F018_F12\F12-record-20220116\KeyScan.c"
  82  0001  0F00        	mov a,0
  82  0002  2000     E  	call _ADC_GetChannelValue
 134  0003              #line 134 "E:\2HT66F018_F12\F12-record-20220116\KeyScan.c"
 134  0003  0F00        	mov a,0
 134  0004  0003        	ret
 134  0005              _get_key_state endp
 134  0005              #line 134 "E:\2HT66F018_F12\F12-record-20220116\KeyScan.c"
 134  0005              #pragma debug scope 1 1
 134  0005              public _key_func
 134  0005              #pragma debug scope 4 1
 143  0005              #line 143 "E:\2HT66F018_F12\F12-record-20220116\KeyScan.c"
 143  0000              _key_func .section 'code'
 143  0000              _key_func proc
 154  0000              #line 154 "E:\2HT66F018_F12\F12-record-20220116\KeyScan.c"
 154  0000  2000     R  	call _get_key_state
 154  0001  0003        	ret
 154  0002              _key_func endp
 154  0002              #line 154 "E:\2HT66F018_F12\F12-record-20220116\KeyScan.c"
 154  0002              #pragma debug scope 1 1
 154  0002              public _key_flag
 154  0000              @HCCINIT	.section 'data'
 140  0000              #line 140 "E:\2HT66F018_F12\F12-record-20220116\KeyScan.c"
 140  0000              @HCCINIT .section 'data'
 140  0000              _key_flag label byte
 140  0000              #pragma debug variable 8 1 _key_flag "key_flag"
 140  0000              	db 0
 140  0000              @ROMDATA_BASE .section inpage 'code'
 140  0000              	db 0
 140  0001              @HCCINIT .section 'data'
 140  0001              public _key_scan_flag
 139  0001              #line 139 "E:\2HT66F018_F12\F12-record-20220116\KeyScan.c"
 139  0001              @HCCINIT .section 'data'
 139  0001              _key_scan_flag label byte
 139  0001              #pragma debug variable 8 1 _key_scan_flag "key_scan_flag"
 139  0001              	db 0
 139  0001              @ROMDATA_BASE .section inpage 'code'
 139  0001              	db 0
 139  0002              @HCCINIT .section 'data'
 139  0002              #pragma debug struct_end
 139  0002              #pragma debug struct_end
 139  0002              #pragma debug union_end
 139  0002              #pragma debug union_end
 139  0002              #pragma debug variable 43 1 ___adcr0 "__adcr0" 1
 139  0002              extern _ADC_GetChannelValue:near
 139  0002              
 139  0002              ; 
 139  0002              ; Generated by holtek-gcc v3.19, Sat Jan 29 10:13:45 2022
 139  0002              ; Rebuild 718
 139  0002              ; end of file


        0 Errors, 0