文件：led.c        编译器版本 HGASM 0202 页次1


   1  0000              ; Generated by holtek-gcc v3.19, Sat Jan 29 10:13:45 2022
   2  0000              ; 
   3  0000              ; Configuration:
   4  0000              ;       without long instruction
   5  0000              ;       Single ROM, Multi-RAM
   6  0000              ;       bits_per_rom_unit:16
   7  0000              ;       with mp1
   8  0000              ;       with tbhp, address(0x9)
   9  0000              ;          Use tabrd-const
  10  0000              ;       
  11  0000              ;       
  12  0000              ;       
  13  0000              ; use 'tabrdc' instead of 'tabrd'
  14  0000              ;       
  15  0000              
  16  0000              #pragma translator "holtek-gcc 4.6.4" "3.19" "build 20130711"
  17  0000              ; Rebuild 718
  18  0000              
  19  0000              ir equ [2]
  20  0000              mp equ [3]
  21  0000              sbp equ [1]
  22  0000              acc equ [5]
  23  0000              bp equ [4]
  24  0000              tblp equ [7]
  25  0000              tbhp equ [9]
  26  0000              status equ [10]
  27  0000              c equ [10].0
  28  0000              ac equ [10].1
  29  0000              z equ [10].2
  30  0000              ov equ [10].3
  31  0000              intc equ [11]
  32  0000              
  33  0000              extern ra:byte
  34  0000              extern rb:byte
  35  0000              extern rc:byte
  36  0000              extern rd:byte
  37  0000              extern re:byte
  38  0000              extern rf:byte
  39  0000              extern rg:byte
  40  0000              extern rh:byte
  41  0000              extern _Crom2Prom:near
  42  0000              extern _Crom2PromNext:near
  43  0000              
  44  0000              RAMBANK 0 @HCCINIT, @HCCINIT0
  45  0000              
  46  0000              RAMBANK 0 @BITDATASEC, @BITDATASEC1
  47  0000              @HCCINIT	.section 'data'
  48  0000              @HCCINIT0	.section 'data'
  49  0000              @BITDATASEC	 .section 'data'
  50  0000              @BITDATASEC1	 .section 'data'
  51  0000              
  52  0000              #pragma debug scope 1 1
  53  0000              	extern __DELAY3:near
  54  0000              	extern __DELAYX3:near
  55  0000              	extern __DELAYX6:near
  56  0000              	extern __DELAYY5:near
  57  0000              	extern __DELAYY3:near
  58  0000              	extern _builtin_holtek_delay_2:byte
  59  0000              ___pc equ [64]
文件：led.ASM      编译器版本 HGASM 0202 页次2

  60  0000              ___pa equ [20]
  61  0000              public _error_task
  62  0000              #pragma debug scope 2 1

  13  0000              #line 13 "E:\2HT66F018_F12\F12-record-20220116\led.c"
  13  0000              _error_task .section 'code'
  13  0000              _error_task proc
  13  0000  00              local _error_task_2 db 1 dup(?)	; 0,1
  17  0001              #line 17 "E:\2HT66F018_F12\F12-record-20220116\led.c"
  17  0000  1080     E  	sz _feed_error[0]
  17  0001  2800     R  	jmp _LI1
  17  0002  2800     R  	jmp _L2
  17  0003              _LI1:
  19  0003              #line 19 "E:\2HT66F018_F12\F12-record-20220116\led.c"
  19  0003  0F01        	mov a,1
  19  0004  0080     E  	mov _task_run_led[0],a
  20  0005              #line 20 "E:\2HT66F018_F12\F12-record-20220116\led.c"
  20  0005  0F04        	mov a,4
  20  0006  0080     E  	mov _led_flag[0],a
  20  0007  2800     R  	jmp _L3
  20  0008              _L2:
  24  0008              #line 24 "E:\2HT66F018_F12\F12-record-20220116\led.c"
  24  0008  1F00     E  	clr _task_run_led[0]
  25  0009              #line 25 "E:\2HT66F018_F12\F12-record-20220116\led.c"
  25  0009  1F00     E  	clr _led_flag[0]
  25  000A              _L3:
  29  000A              #line 29 "E:\2HT66F018_F12\F12-record-20220116\led.c"
  29  000A  38C0        	snz [64].1
  29  000B  2800     R  	jmp _L4
  31  000C              #line 31 "E:\2HT66F018_F12\F12-record-20220116\led.c"
  31  000C  1400     R  	inca ___error_ir_time_1668[0]
  31  000D  0080     E  	mov ra,a
  31  000E  0700     E  	mov a,ra
  31  000F  0080     R  	mov ___error_ir_time_1668[0],a
  32  0010              #line 32 "E:\2HT66F018_F12\F12-record-20220116\led.c"
  32  0010  0F95        	mov a,149
  32  0011  0200     E  	sub a,ra
  32  0012  3C0A        	sz c
  32  0013  2800     R  	jmp _L5
  34  0014              #line 34 "E:\2HT66F018_F12\F12-record-20220116\led.c"
  34  0014  0F03        	mov a,3
  34  0015  0580     E  	orm a,_feed_error[0]
  35  0016              #line 35 "E:\2HT66F018_F12\F12-record-20220116\led.c"
  35  0016  1F00     R  	clr ___error_ir_time_1668[0]
  35  0017  2800     R  	jmp _L5
  35  0018              _L4:
  40  0018              #line 40 "E:\2HT66F018_F12\F12-record-20220116\led.c"
  40  0018  1F00     R  	clr ___error_ir_time_1668[0]
  41  0019              #line 41 "E:\2HT66F018_F12\F12-record-20220116\led.c"
  41  0019  0FFC        	mov a,252
  41  001A  0680     E  	andm a,_feed_error[0]
  41  001B              _L5:
  44  001B              #line 44 "E:\2HT66F018_F12\F12-record-20220116\led.c"
  44  001B  0700     E  	mov a,_led_flag[0]
  44  001C  0080     R  	mov _error_task_2[0],a
  44  001D  0700     R  	mov a,_error_task_2[0]
  44  001E  0A04        	sub a,4
  44  001F  390A        	snz z
  44  0020  2800     R  	jmp _L6
  44  0021  1700     E  	sdza _task_run_led[0]
文件：led.c        编译器版本 HGASM 0202 页次3

  44  0022  2800     R  	jmp _L1
  47  0023              #line 47 "E:\2HT66F018_F12\F12-record-20220116\led.c"
  47  0023  3614        	clr [20].4
  49  0024              #line 49 "E:\2HT66F018_F12\F12-record-20220116\led.c"
  49  0024  1400     R  	inca ___led_blink_1669[0]
  49  0025  0080     E  	mov ra,a
  49  0026  0700     E  	mov a,ra
  49  0027  0080     R  	mov ___led_blink_1669[0],a
  50  0028              #line 50 "E:\2HT66F018_F12\F12-record-20220116\led.c"
  50  0028  0F31        	mov a,49
  50  0029  0200     E  	sub a,ra
  50  002A  3C0A        	sz c
  50  002B  2800     R  	jmp _L1
  52  002C              #line 52 "E:\2HT66F018_F12\F12-record-20220116\led.c"
  52  002C  1F00     E  	clr ra
  52  002D  3A94        	snz [20].5
  52  002E  3000     E  	set ra.5
  52  002F  3694        	clr [20].5
  52  0030  0700     E  	mov a,ra
  52  0031  0594        	orm a,[20]
  53  0032              #line 53 "E:\2HT66F018_F12\F12-record-20220116\led.c"
  53  0032  1F00     R  	clr ___led_blink_1669[0]
  53  0033  2800     R  	jmp _L1
  53  0034              _L6:
  57  0034              #line 57 "E:\2HT66F018_F12\F12-record-20220116\led.c"
  57  0034  1080     R  	sz _error_task_2[0]
  57  0035  2800     R  	jmp _L1
  57  0036  1080     E  	sz _task_run_led[0]
  57  0037  2800     R  	jmp _L1
  59  0038              #line 59 "E:\2HT66F018_F12\F12-record-20220116\led.c"
  59  0038  3214        	set [20].4
  60  0039              #line 60 "E:\2HT66F018_F12\F12-record-20220116\led.c"
  60  0039  3694        	clr [20].5
  60  003A              _L1:
  60  003A  0003        	ret
  60  003B              _error_task endp
  60  003B              #line 60 "E:\2HT66F018_F12\F12-record-20220116\led.c"
  60  003B              #pragma debug scope 1 1
  60  0000              @HCCINIT	.section 'data'
  15  0000              #line 15 "E:\2HT66F018_F12\F12-record-20220116\led.c"
  15  0000              @HCCINIT .section 'data'
  15  0000              ___led_blink_1669 label byte
  15  0000              #pragma debug variable 8 2 ___led_blink_1669 "led_blink"
  15  0000              	db 0
  15  0000              @ROMDATA_BASE .section inpage 'code'
  15  0000              	db 0
  15  0001              @HCCINIT .section 'data'
  14  0001              #line 14 "E:\2HT66F018_F12\F12-record-20220116\led.c"
  14  0001              @HCCINIT .section 'data'
  14  0001              ___error_ir_time_1668 label byte
  14  0001              #pragma debug variable 8 2 ___error_ir_time_1668 "error_ir_time"
  14  0001              	db 0
  14  0001              @ROMDATA_BASE .section inpage 'code'
  14  0001              	db 0
  14  0002              @HCCINIT .section 'data'
  14  0002              #pragma debug struct_end
  14  0002              #pragma debug struct_end
  14  0002              #pragma debug union_end
  14  0002              #pragma debug union_end
  14  0002              #pragma debug variable 43 1 ___pa "__pa" 1
文件：led.c        编译器版本 HGASM 0202 页次4

  14  0002              #pragma debug struct_end
  14  0002              #pragma debug struct_end
  14  0002              #pragma debug union_end
  14  0002              #pragma debug union_end
  14  0002              #pragma debug variable 45 1 ___pc "__pc" 1
  14  0002              
  14  0002              ; output external variables
  14  0002              extern _led_flag:byte
  14  0002              extern _task_run_led:byte
  14  0002              extern _feed_error:byte
  14  0002              
  14  0002              ; 
  14  0002              ; Generated by holtek-gcc v3.19, Sat Jan 29 10:13:45 2022
  14  0002              ; Rebuild 718
  14  0002              ; end of file


        0 Errors, 0